---
triple:          'arm64-apple-darwin'
binary-path:     nqueens.exe
relocations:
  - { offsetInCU: 0x6F69, offset: 0x6F69, size: 0x8, addend: 0x0, symName: __ZNSt3__114__copy_alignedB8ue170006INS_6vectorIbNS_9allocatorIbEEEELb1EEENS_14__bit_iteratorIT_Lb0EXLi0EEEENS5_IS6_XT0_EXLi0EEEES8_S7_, symObjAddr: 0x5458, symBinAddr: 0x10000758C, symSize: 0x268 }
  - { offsetInCU: 0x7095, offset: 0x7095, size: 0x8, addend: 0x0, symName: __ZNSt3__16copy_nB8ue170006IPKmmPmEENS_9enable_ifIXsr37__has_random_access_iterator_categoryIT_EE5valueET1_E4typeES5_T0_S6_, symObjAddr: 0x5C54, symBinAddr: 0x100007D88, symSize: 0x44 }
  - { offsetInCU: 0x713C, offset: 0x713C, size: 0x8, addend: 0x0, symName: __ZNSt3__116__copy_unalignedB8ue170006INS_6vectorIbNS_9allocatorIbEEEELb1EEENS_14__bit_iteratorIT_Lb0EXLi0EEEENS5_IS6_XT0_EXLi0EEEES8_S7_, symObjAddr: 0x56C0, symBinAddr: 0x1000077F4, symSize: 0x520 }
  - { offsetInCU: 0x72BC, offset: 0x72BC, size: 0x8, addend: 0x0, symName: __ZNSt3__113__fill_n_trueB8ue170006INS_6vectorIbNS_9allocatorIbEEEEEEvNS_14__bit_iteratorIT_Lb0EXLi0EEEENS6_9size_typeE, symObjAddr: 0x6598, symBinAddr: 0x1000086CC, symSize: 0x160 }
  - { offsetInCU: 0x7381, offset: 0x7381, size: 0x8, addend: 0x0, symName: __ZNSt3__114__fill_n_falseB8ue170006INS_6vectorIbNS_9allocatorIbEEEEEEvNS_14__bit_iteratorIT_Lb0EXLi0EEEENS6_9size_typeE, symObjAddr: 0x66F8, symBinAddr: 0x10000882C, symSize: 0x15C }
  - { offsetInCU: 0x7446, offset: 0x7446, size: 0x8, addend: 0x0, symName: __ZNSt3__124__put_character_sequenceB8ue170006IcNS_11char_traitsIcEEEERNS_13basic_ostreamIT_T0_EES7_PKS4_m, symObjAddr: 0x6B10, symBinAddr: 0x100008C44, symSize: 0x1EC }
  - { offsetInCU: 0x91AA, offset: 0x91AA, size: 0x8, addend: 0x0, symName: __ZNSt3__1lsB8ue170006INS_11char_traitsIcEEEERNS_13basic_ostreamIcT_EES6_PKc, symObjAddr: 0x958, symBinAddr: 0x100002A8C, symSize: 0x48 }
  - { offsetInCU: 0x91F0, offset: 0x91F0, size: 0x8, addend: 0x0, symName: __ZNSt3__14endlB8ue170006IcNS_11char_traitsIcEEEERNS_13basic_ostreamIT_T0_EES7_, symObjAddr: 0x9CC, symBinAddr: 0x100002B00, symSize: 0x58 }
  - { offsetInCU: 0x9230, offset: 0x9230, size: 0x8, addend: 0x0, symName: __ZNSt3__122__make_exception_guardB8ue170006INS_6vectorImNS_9allocatorImEEE16__destroy_vectorEEENS_28__exception_guard_exceptionsIT_EES7_, symObjAddr: 0xB3C, symBinAddr: 0x100002C70, symSize: 0x40 }
  - { offsetInCU: 0x9265, offset: 0x9265, size: 0x8, addend: 0x0, symName: __ZNSt3__119__allocate_at_leastB8ue170006INS_9allocatorImEEEENS_19__allocation_resultINS_16allocator_traitsIT_E7pointerEEERS5_m, symObjAddr: 0xF30, symBinAddr: 0x100003064, symSize: 0x40 }
  - { offsetInCU: 0x92A8, offset: 0x92A8, size: 0x8, addend: 0x0, symName: __ZNSt3__13minB8ue170006ImEERKT_S3_S3_, symObjAddr: 0x106C, symBinAddr: 0x1000031A0, symSize: 0x2C }
  - { offsetInCU: 0x94EC, offset: 0x94EC, size: 0x8, addend: 0x0, symName: __ZNSt3__13minB8ue170006ImNS_6__lessIvvEEEERKT_S5_S5_T0_, symObjAddr: 0x1104, symBinAddr: 0x100003238, symSize: 0x54 }
  - { offsetInCU: 0x95BC, offset: 0x95BC, size: 0x8, addend: 0x0, symName: __ZNSt3__120__throw_length_errorB8ue170006EPKc, symObjAddr: 0x11E0, symBinAddr: 0x100003314, symSize: 0x64 }
  - { offsetInCU: 0x95E6, offset: 0x95E6, size: 0x8, addend: 0x0, symName: __ZNSt3__117__libcpp_allocateB8ue170006Emm, symObjAddr: 0x1350, symBinAddr: 0x100003484, symSize: 0x28 }
  - { offsetInCU: 0x9623, offset: 0x9623, size: 0x8, addend: 0x0, symName: __ZNSt3__121__libcpp_operator_newB8ue170006IJmEEEPvDpT_, symObjAddr: 0x1378, symBinAddr: 0x1000034AC, symSize: 0x24 }
  - { offsetInCU: 0x965C, offset: 0x965C, size: 0x8, addend: 0x0, symName: __ZNSt3__112__to_addressB8ue170006ImEEPT_S2_, symObjAddr: 0x1494, symBinAddr: 0x1000035C8, symSize: 0x14 }
  - { offsetInCU: 0x9691, offset: 0x9691, size: 0x8, addend: 0x0, symName: __ZNSt3__119__libcpp_deallocateB8ue170006EPvmm, symObjAddr: 0x1958, symBinAddr: 0x100003A8C, symSize: 0x30 }
  - { offsetInCU: 0x96D9, offset: 0x96D9, size: 0x8, addend: 0x0, symName: __ZNSt3__127__do_deallocate_handle_sizeB8ue170006IJEEEvPvmDpT_, symObjAddr: 0x1988, symBinAddr: 0x100003ABC, symSize: 0x28 }
  - { offsetInCU: 0x9717, offset: 0x9717, size: 0x8, addend: 0x0, symName: __ZNSt3__124__libcpp_operator_deleteB8ue170006IJPvEEEvDpT_, symObjAddr: 0x19B0, symBinAddr: 0x100003AE4, symSize: 0x24 }
  - { offsetInCU: 0x974C, offset: 0x974C, size: 0x8, addend: 0x0, symName: __ZNSt3__112__to_addressB8ue170006INS_6vectorImNS_9allocatorImEEEEEEPT_S6_, symObjAddr: 0x2054, symBinAddr: 0x100004188, symSize: 0x14 }
  - { offsetInCU: 0x9781, offset: 0x9781, size: 0x8, addend: 0x0, symName: __ZNSt3__130__uninitialized_allocator_copyB8ue170006INS_9allocatorImEEPmS3_S3_EET2_RT_T0_T1_S4_, symObjAddr: 0x23C4, symBinAddr: 0x1000044F8, symSize: 0x80 }
  - { offsetInCU: 0x981E, offset: 0x981E, size: 0x8, addend: 0x0, symName: __ZNSt3__114__unwrap_rangeB8ue170006IPmS1_EENS_4pairIT0_S3_EET_S5_, symObjAddr: 0x2444, symBinAddr: 0x100004578, symSize: 0x60 }
  - { offsetInCU: 0x986A, offset: 0x986A, size: 0x8, addend: 0x0, symName: __ZNSt3__135__uninitialized_allocator_copy_implB8ue170006INS_9allocatorImEEmmmLPv0EEEPT2_RT_PT0_S9_S5_, symObjAddr: 0x24A4, symBinAddr: 0x1000045D8, symSize: 0x38 }
  - { offsetInCU: 0x98EB, offset: 0x98EB, size: 0x8, addend: 0x0, symName: __ZNSt3__113__unwrap_iterB8ue170006IPmNS_18__unwrap_iter_implIS1_Lb1EEELi0EEEDTclsrT0_8__unwrapclsr3stdE7declvalIT_EEEES5_, symObjAddr: 0x24DC, symBinAddr: 0x100004610, symSize: 0x24 }
  - { offsetInCU: 0x992F, offset: 0x992F, size: 0x8, addend: 0x0, symName: __ZNSt3__113__rewrap_iterB8ue170006IPmS1_NS_18__unwrap_iter_implIS1_Lb1EEEEET_S4_T0_, symObjAddr: 0x2500, symBinAddr: 0x100004634, symSize: 0x3C }
  - { offsetInCU: 0x9984, offset: 0x9984, size: 0x8, addend: 0x0, symName: __ZNSt3__19make_pairB8ue170006IPmS1_EENS_4pairINS_18__unwrap_ref_decayIT_E4typeENS3_IT0_E4typeEEEOS4_OS7_, symObjAddr: 0x253C, symBinAddr: 0x100004670, symSize: 0x38 }
  - { offsetInCU: 0x9AD6, offset: 0x9AD6, size: 0x8, addend: 0x0, symName: __ZNSt3__14copyB8ue170006IPmS1_EET0_T_S3_S2_, symObjAddr: 0x25E4, symBinAddr: 0x100004718, symSize: 0x40 }
  - { offsetInCU: 0x9B30, offset: 0x9B30, size: 0x8, addend: 0x0, symName: __ZNSt3__16__copyB8ue170006INS_17_ClassicAlgPolicyEPmS2_S2_EENS_4pairIT0_T2_EES4_T1_S5_, symObjAddr: 0x2624, symBinAddr: 0x100004758, symSize: 0x44 }
  - { offsetInCU: 0x9B9C, offset: 0x9B9C, size: 0x8, addend: 0x0, symName: __ZNSt3__123__dispatch_copy_or_moveB8ue170006INS_17_ClassicAlgPolicyENS_11__copy_loopIS1_EENS_14__copy_trivialEPmS5_S5_EENS_4pairIT2_T4_EES7_T3_S8_, symObjAddr: 0x2668, symBinAddr: 0x10000479C, symSize: 0x44 }
  - { offsetInCU: 0x9C1A, offset: 0x9C1A, size: 0x8, addend: 0x0, symName: __ZNSt3__121__unwrap_and_dispatchB8ue170006INS_10__overloadINS_11__copy_loopINS_17_ClassicAlgPolicyEEENS_14__copy_trivialEEEPmS7_S7_Li0EEENS_4pairIT0_T2_EES9_T1_SA_, symObjAddr: 0x26AC, symBinAddr: 0x1000047E0, symSize: 0xB4 }
  - { offsetInCU: 0x9D2A, offset: 0x9D2A, size: 0x8, addend: 0x0, symName: __ZNSt3__114__rewrap_rangeB8ue170006IPmS1_EET_S2_T0_, symObjAddr: 0x27A8, symBinAddr: 0x1000048DC, symSize: 0x2C }
  - { offsetInCU: 0x9D76, offset: 0x9D76, size: 0x8, addend: 0x0, symName: __ZNSt3__119__copy_trivial_implB8ue170006ImmEENS_4pairIPT_PT0_EES3_S3_S5_, symObjAddr: 0x27D4, symBinAddr: 0x100004908, symSize: 0x80 }
  - { offsetInCU: 0x9DDE, offset: 0x9DDE, size: 0x8, addend: 0x0, symName: __ZNSt3__119__constexpr_memmoveB8ue170006ImmLi0EEEPT_S2_PT0_NS_15__element_countE, symObjAddr: 0x2854, symBinAddr: 0x100004988, symSize: 0x64 }
  - { offsetInCU: 0x9E4C, offset: 0x9E4C, size: 0x8, addend: 0x0, symName: __ZNSt3__19make_pairB8ue170006IRPmS1_EENS_4pairINS_18__unwrap_ref_decayIT_E4typeENS4_IT0_E4typeEEEOS5_OS8_, symObjAddr: 0x28B8, symBinAddr: 0x1000049EC, symSize: 0x38 }
  - { offsetInCU: 0x9EEE, offset: 0x9EEE, size: 0x8, addend: 0x0, symName: __ZNSt3__13maxB8ue170006ImEERKT_S3_S3_, symObjAddr: 0x2AE8, symBinAddr: 0x100004C1C, symSize: 0x2C }
  - { offsetInCU: 0x9F31, offset: 0x9F31, size: 0x8, addend: 0x0, symName: __ZNSt3__13maxB8ue170006ImNS_6__lessIvvEEEERKT_S5_S5_T0_, symObjAddr: 0x2C10, symBinAddr: 0x100004D44, symSize: 0x54 }
  - { offsetInCU: 0x9F8B, offset: 0x9F8B, size: 0x8, addend: 0x0, symName: __ZNSt3__119__allocate_at_leastB8ue170006INS_9allocatorINS_6vectorImNS1_ImEEEEEEEENS_19__allocation_resultINS_16allocator_traitsIT_E7pointerEEERS8_m, symObjAddr: 0x2D80, symBinAddr: 0x100004EB4, symSize: 0x40 }
  - { offsetInCU: 0x9FCE, offset: 0x9FCE, size: 0x8, addend: 0x0, symName: __ZNSt3__142__uninitialized_allocator_move_if_noexceptB8ue170006INS_9allocatorINS_6vectorImNS1_ImEEEEEENS_16reverse_iteratorIPS4_EES8_S8_EET2_RT_T0_T1_S9_, symObjAddr: 0x30FC, symBinAddr: 0x100005230, symSize: 0x12C }
  - { offsetInCU: 0xA06E, offset: 0xA06E, size: 0x8, addend: 0x0, symName: __ZNSt3__14swapB8ue170006IPNS_6vectorImNS_9allocatorImEEEEEENS_9enable_ifIXaasr21is_move_constructibleIT_EE5valuesr18is_move_assignableIS7_EE5valueEvE4typeERS7_SA_, symObjAddr: 0x3274, symBinAddr: 0x1000053A8, symSize: 0x3C }
  - { offsetInCU: 0xA0BF, offset: 0xA0BF, size: 0x8, addend: 0x0, symName: __ZNSt3__122__make_exception_guardB8ue170006INS_29_AllocatorDestroyRangeReverseINS_9allocatorINS_6vectorImNS2_ImEEEEEENS_16reverse_iteratorIPS5_EEEEEENS_28__exception_guard_exceptionsIT_EESC_, symObjAddr: 0x33C0, symBinAddr: 0x1000054F4, symSize: 0x4C }
  - { offsetInCU: 0xA0F5, offset: 0xA0F5, size: 0x8, addend: 0x0, symName: __ZNSt3__1neB8ue170006IPNS_6vectorImNS_9allocatorImEEEES5_EEbRKNS_16reverse_iteratorIT_EERKNS6_IT0_EE, symObjAddr: 0x3450, symBinAddr: 0x100005584, symSize: 0x48 }
  - { offsetInCU: 0xA141, offset: 0xA141, size: 0x8, addend: 0x0, symName: __ZNSt3__112__to_addressB8ue170006INS_16reverse_iteratorIPNS_6vectorImNS_9allocatorImEEEEEEvEEu7__decayIDTclsr19__to_address_helperIT_EE6__callclsr3stdE7declvalIRKS8_EEEEESA_, symObjAddr: 0x34CC, symBinAddr: 0x100005600, symSize: 0x24 }
  - { offsetInCU: 0xA1A0, offset: 0xA1A0, size: 0x8, addend: 0x0, symName: __ZNSt3__119__allocator_destroyB8ue170006INS_9allocatorINS_6vectorImNS1_ImEEEEEENS_16reverse_iteratorINS6_IPS4_EEEES9_EEvRT_T0_T1_, symObjAddr: 0x38A4, symBinAddr: 0x1000059D8, symSize: 0x70 }
  - { offsetInCU: 0xA205, offset: 0xA205, size: 0x8, addend: 0x0, symName: __ZNSt3__1neB8ue170006INS_16reverse_iteratorIPNS_6vectorImNS_9allocatorImEEEEEES7_EEbRKNS1_IT_EERKNS1_IT0_EE, symObjAddr: 0x3950, symBinAddr: 0x100005A84, symSize: 0x60 }
  - { offsetInCU: 0xA251, offset: 0xA251, size: 0x8, addend: 0x0, symName: __ZNSt3__112__to_addressB8ue170006INS_16reverse_iteratorINS1_IPNS_6vectorImNS_9allocatorImEEEEEEEEvEEu7__decayIDTclsr19__to_address_helperIT_EE6__callclsr3stdE7declvalIRKS9_EEEEESB_, symObjAddr: 0x39DC, symBinAddr: 0x100005B10, symSize: 0x24 }
  - { offsetInCU: 0xA2B0, offset: 0xA2B0, size: 0x8, addend: 0x0, symName: __ZNSt3__14copyB8ue170006INS_6vectorIbNS_9allocatorIbEEEELb1EEENS_14__bit_iteratorIT_Lb0EXLi0EEEENS5_IS6_XT0_EXLi0EEEES8_S7_, symObjAddr: 0x4258, symBinAddr: 0x10000638C, symSize: 0xD4 }
  - { offsetInCU: 0xA310, offset: 0xA310, size: 0x8, addend: 0x0, symName: __ZNSt3__16fill_nB8ue170006INS_6vectorIbNS_9allocatorIbEEEEEEvNS_14__bit_iteratorIT_Lb0EXLi0EEEENS6_9size_typeEb, symObjAddr: 0x447C, symBinAddr: 0x1000065B0, symSize: 0x94 }
  - { offsetInCU: 0xA564, offset: 0xA564, size: 0x8, addend: 0x0, symName: __ZNSt3__16__copyB8ue170006INS_17_ClassicAlgPolicyENS_14__bit_iteratorINS_6vectorIbNS_9allocatorIbEEEELb0ELm0EEES7_S7_EENS_4pairIT0_T2_EES9_T1_SA_, symObjAddr: 0x4C24, symBinAddr: 0x100006D58, symSize: 0x88 }
  - { offsetInCU: 0xA5D3, offset: 0xA5D3, size: 0x8, addend: 0x0, symName: __ZNSt3__123__dispatch_copy_or_moveB8ue170006INS_17_ClassicAlgPolicyENS_11__copy_loopIS1_EENS_14__copy_trivialENS_14__bit_iteratorINS_6vectorIbNS_9allocatorIbEEEELb0ELm0EEESA_SA_EENS_4pairIT2_T4_EESC_T3_SD_, symObjAddr: 0x4CAC, symBinAddr: 0x100006DE0, symSize: 0x88 }
  - { offsetInCU: 0xA654, offset: 0xA654, size: 0x8, addend: 0x0, symName: __ZNSt3__121__unwrap_and_dispatchB8ue170006INS_10__overloadINS_11__copy_loopINS_17_ClassicAlgPolicyEEENS_14__copy_trivialEEENS_14__bit_iteratorINS_6vectorIbNS_9allocatorIbEEEELb0ELm0EEESC_SC_Li0EEENS_4pairIT0_T2_EESE_T1_SF_, symObjAddr: 0x4D34, symBinAddr: 0x100006E68, symSize: 0x15C }
  - { offsetInCU: 0xA6E7, offset: 0xA6E7, size: 0x8, addend: 0x0, symName: __ZNSt3__114__unwrap_rangeB8ue170006INS_14__bit_iteratorINS_6vectorIbNS_9allocatorIbEEEELb0ELm0EEES6_EENS_4pairIT0_S8_EET_SA_, symObjAddr: 0x4E90, symBinAddr: 0x100006FC4, symSize: 0x8C }
  - { offsetInCU: 0xA864, offset: 0xA864, size: 0x8, addend: 0x0, symName: __ZNSt3__113__unwrap_iterB8ue170006INS_14__bit_iteratorINS_6vectorIbNS_9allocatorIbEEEELb0ELm0EEENS_18__unwrap_iter_implIS6_Lb0EEELi0EEEDTclsrT0_8__unwrapclsr3stdE7declvalIT_EEEESA_, symObjAddr: 0x4FD4, symBinAddr: 0x100007108, symSize: 0x44 }
  - { offsetInCU: 0xA8A9, offset: 0xA8A9, size: 0x8, addend: 0x0, symName: __ZNSt3__19make_pairB8ue170006INS_14__bit_iteratorINS_6vectorIbNS_9allocatorIbEEEELb0ELm0EEES6_EENS_4pairINS_18__unwrap_ref_decayIT_E4typeENS8_IT0_E4typeEEEOS9_OSC_, symObjAddr: 0x5018, symBinAddr: 0x10000714C, symSize: 0x40 }
  - { offsetInCU: 0xA8F8, offset: 0xA8F8, size: 0x8, addend: 0x0, symName: __ZNSt3__114__rewrap_rangeB8ue170006INS_14__bit_iteratorINS_6vectorIbNS_9allocatorIbEEEELb0ELm0EEES6_EET_S7_T0_, symObjAddr: 0x5058, symBinAddr: 0x10000718C, symSize: 0x6C }
  - { offsetInCU: 0xA946, offset: 0xA946, size: 0x8, addend: 0x0, symName: __ZNSt3__113__rewrap_iterB8ue170006INS_14__bit_iteratorINS_6vectorIbNS_9allocatorIbEEEELb0ELm0EEES6_NS_18__unwrap_iter_implIS6_Lb0EEEEET_S9_T0_, symObjAddr: 0x50C4, symBinAddr: 0x1000071F8, symSize: 0x74 }
  - { offsetInCU: 0xA99D, offset: 0xA99D, size: 0x8, addend: 0x0, symName: __ZNSt3__1neB8ue170006ERKNS_14__bit_iteratorINS_6vectorIbNS_9allocatorIbEEEELb0ELm0EEES7_, symObjAddr: 0x5138, symBinAddr: 0x10000726C, symSize: 0x34 }
  - { offsetInCU: 0xA9DA, offset: 0xA9DA, size: 0x8, addend: 0x0, symName: __ZNSt3__1eqB8ue170006ERKNS_14__bit_iteratorINS_6vectorIbNS_9allocatorIbEEEELb0ELm0EEES7_, symObjAddr: 0x524C, symBinAddr: 0x100007380, symSize: 0x64 }
  - { offsetInCU: 0xAA5F, offset: 0xAA5F, size: 0x8, addend: 0x0, symName: __ZNSt3__1miB8ue170006ERKNS_14__bit_iteratorINS_6vectorIbNS_9allocatorIbEEEELb1ELm0EEES7_, symObjAddr: 0x5BE0, symBinAddr: 0x100007D14, symSize: 0x48 }
  - { offsetInCU: 0xAA9C, offset: 0xAA9C, size: 0x8, addend: 0x0, symName: __ZNSt3__13minB8ue170006IlEERKT_S3_S3_, symObjAddr: 0x5C28, symBinAddr: 0x100007D5C, symSize: 0x2C }
  - { offsetInCU: 0xAADF, offset: 0xAADF, size: 0x8, addend: 0x0, symName: __ZNSt3__112__to_addressB8ue170006IKmEEPT_S3_, symObjAddr: 0x5C98, symBinAddr: 0x100007DCC, symSize: 0x14 }
  - { offsetInCU: 0xAB14, offset: 0xAB14, size: 0x8, addend: 0x0, symName: __ZNSt3__13minB8ue170006IlNS_6__lessIvvEEEERKT_S5_S5_T0_, symObjAddr: 0x5CAC, symBinAddr: 0x100007DE0, symSize: 0x54 }
  - { offsetInCU: 0xAB6E, offset: 0xAB6E, size: 0x8, addend: 0x0, symName: __ZNSt3__14copyB8ue170006IPKmPmEET0_T_S5_S4_, symObjAddr: 0x5D34, symBinAddr: 0x100007E68, symSize: 0x40 }
  - { offsetInCU: 0xABC8, offset: 0xABC8, size: 0x8, addend: 0x0, symName: __ZNSt3__16__copyB8ue170006INS_17_ClassicAlgPolicyEPKmS3_PmEENS_4pairIT0_T2_EES6_T1_S7_, symObjAddr: 0x5D74, symBinAddr: 0x100007EA8, symSize: 0x44 }
  - { offsetInCU: 0xAC34, offset: 0xAC34, size: 0x8, addend: 0x0, symName: __ZNSt3__123__dispatch_copy_or_moveB8ue170006INS_17_ClassicAlgPolicyENS_11__copy_loopIS1_EENS_14__copy_trivialEPKmS6_PmEENS_4pairIT2_T4_EES9_T3_SA_, symObjAddr: 0x5DB8, symBinAddr: 0x100007EEC, symSize: 0x44 }
  - { offsetInCU: 0xACB2, offset: 0xACB2, size: 0x8, addend: 0x0, symName: __ZNSt3__121__unwrap_and_dispatchB8ue170006INS_10__overloadINS_11__copy_loopINS_17_ClassicAlgPolicyEEENS_14__copy_trivialEEEPKmS8_PmLi0EEENS_4pairIT0_T2_EESB_T1_SC_, symObjAddr: 0x5DFC, symBinAddr: 0x100007F30, symSize: 0xB4 }
  - { offsetInCU: 0xAD40, offset: 0xAD40, size: 0x8, addend: 0x0, symName: __ZNSt3__114__unwrap_rangeB8ue170006IPKmS2_EENS_4pairIT0_S4_EET_S6_, symObjAddr: 0x5EB0, symBinAddr: 0x100007FE4, symSize: 0x60 }
  - { offsetInCU: 0xAE8F, offset: 0xAE8F, size: 0x8, addend: 0x0, symName: __ZNSt3__19make_pairB8ue170006IPKmPmEENS_4pairINS_18__unwrap_ref_decayIT_E4typeENS5_IT0_E4typeEEEOS6_OS9_, symObjAddr: 0x5F58, symBinAddr: 0x10000808C, symSize: 0x38 }
  - { offsetInCU: 0xAEDE, offset: 0xAEDE, size: 0x8, addend: 0x0, symName: __ZNSt3__114__rewrap_rangeB8ue170006IPKmS2_EET_S3_T0_, symObjAddr: 0x5F90, symBinAddr: 0x1000080C4, symSize: 0x2C }
  - { offsetInCU: 0xAF2A, offset: 0xAF2A, size: 0x8, addend: 0x0, symName: __ZNSt3__19make_pairB8ue170006IPKmS2_EENS_4pairINS_18__unwrap_ref_decayIT_E4typeENS4_IT0_E4typeEEEOS5_OS8_, symObjAddr: 0x5FBC, symBinAddr: 0x1000080F0, symSize: 0x38 }
  - { offsetInCU: 0xAF79, offset: 0xAF79, size: 0x8, addend: 0x0, symName: __ZNSt3__113__unwrap_iterB8ue170006IPKmNS_18__unwrap_iter_implIS2_Lb1EEELi0EEEDTclsrT0_8__unwrapclsr3stdE7declvalIT_EEEES6_, symObjAddr: 0x5FF4, symBinAddr: 0x100008128, symSize: 0x24 }
  - { offsetInCU: 0xB0E4, offset: 0xB0E4, size: 0x8, addend: 0x0, symName: __ZNSt3__119__copy_trivial_implB8ue170006IKmmEENS_4pairIPT_PT0_EES4_S4_S6_, symObjAddr: 0x60AC, symBinAddr: 0x1000081E0, symSize: 0x80 }
  - { offsetInCU: 0xB14C, offset: 0xB14C, size: 0x8, addend: 0x0, symName: __ZNSt3__119__constexpr_memmoveB8ue170006ImKmLi0EEEPT_S3_PT0_NS_15__element_countE, symObjAddr: 0x612C, symBinAddr: 0x100008260, symSize: 0x64 }
  - { offsetInCU: 0xB1BA, offset: 0xB1BA, size: 0x8, addend: 0x0, symName: __ZNSt3__19make_pairB8ue170006IRPKmPmEENS_4pairINS_18__unwrap_ref_decayIT_E4typeENS6_IT0_E4typeEEEOS7_OSA_, symObjAddr: 0x6190, symBinAddr: 0x1000082C4, symSize: 0x38 }
  - { offsetInCU: 0xB209, offset: 0xB209, size: 0x8, addend: 0x0, symName: __ZNSt3__113__rewrap_iterB8ue170006IPKmS2_NS_18__unwrap_iter_implIS2_Lb1EEEEET_S5_T0_, symObjAddr: 0x62A8, symBinAddr: 0x1000083DC, symSize: 0x3C }
  - { offsetInCU: 0xB25E, offset: 0xB25E, size: 0x8, addend: 0x0, symName: __ZNSt3__14swapB8ue170006IPmEENS_9enable_ifIXaasr21is_move_constructibleIT_EE5valuesr18is_move_assignableIS3_EE5valueEvE4typeERS3_S6_, symObjAddr: 0x63F8, symBinAddr: 0x10000852C, symSize: 0x3C }
  - { offsetInCU: 0xB2AF, offset: 0xB2AF, size: 0x8, addend: 0x0, symName: __ZNSt3__14swapB8ue170006ImEENS_9enable_ifIXaasr21is_move_constructibleIT_EE5valuesr18is_move_assignableIS2_EE5valueEvE4typeERS2_S5_, symObjAddr: 0x6434, symBinAddr: 0x100008568, symSize: 0x3C }
  - { offsetInCU: 0xB300, offset: 0xB300, size: 0x8, addend: 0x0, symName: __ZNSt3__116__swap_allocatorB8ue170006INS_9allocatorImEEEEvRT_S4_NS_17integral_constantIbLb0EEE, symObjAddr: 0x6470, symBinAddr: 0x1000085A4, symSize: 0x14 }
  - { offsetInCU: 0xB341, offset: 0xB341, size: 0x8, addend: 0x0, symName: __ZNSt3__16fill_nB8ue170006IPmmmEET_S2_T0_RKT1_, symObjAddr: 0x6854, symBinAddr: 0x100008988, symSize: 0x44 }
  - { offsetInCU: 0xB3A4, offset: 0xB3A4, size: 0x8, addend: 0x0, symName: __ZNSt3__18__fill_nB8ue170006IPmmmEET_S2_T0_RKT1_, symObjAddr: 0x6898, symBinAddr: 0x1000089CC, symSize: 0x64 }
  - { offsetInCU: 0xB407, offset: 0xB407, size: 0x8, addend: 0x0, symName: __ZNSt3__121__convert_to_integralB8ue170006Em, symObjAddr: 0x68FC, symBinAddr: 0x100008A30, symSize: 0x14 }
  - { offsetInCU: 0xB433, offset: 0xB433, size: 0x8, addend: 0x0, symName: __ZNSt3__16fill_nB8ue170006IPmmiEET_S2_T0_RKT1_, symObjAddr: 0x6910, symBinAddr: 0x100008A44, symSize: 0x44 }
  - { offsetInCU: 0xB496, offset: 0xB496, size: 0x8, addend: 0x0, symName: __ZNSt3__18__fill_nB8ue170006IPmmiEET_S2_T0_RKT1_, symObjAddr: 0x6954, symBinAddr: 0x100008A88, symSize: 0x64 }
  - { offsetInCU: 0xB4F9, offset: 0xB4F9, size: 0x8, addend: 0x0, symName: __ZNSt3__116__pad_and_outputB8ue170006IcNS_11char_traitsIcEEEENS_19ostreambuf_iteratorIT_T0_EES6_PKS4_S8_S8_RNS_8ios_baseES4_, symObjAddr: 0x6D4C, symBinAddr: 0x100008E80, symSize: 0x240 }
  - { offsetInCU: 0xB5C8, offset: 0xB5C8, size: 0x8, addend: 0x0, symName: __ZNSt3__112__to_addressB8ue170006IKcEEPT_S3_, symObjAddr: 0x72B4, symBinAddr: 0x1000093E8, symSize: 0x14 }
  - { offsetInCU: 0xB630, offset: 0xB630, size: 0x8, addend: 0x0, symName: __ZNSt3__19use_facetB8ue170006INS_5ctypeIcEEEERKT_RKNS_6localeE, symObjAddr: 0x7534, symBinAddr: 0x100009668, symSize: 0x2C }
  - { offsetInCU: 0xBAFD, offset: 0xBAFD, size: 0x8, addend: 0x0, symName: __ZNSt3__118__constexpr_strlenB8ue170006EPKc, symObjAddr: 0x75CC, symBinAddr: 0x100009700, symSize: 0x24 }
  - { offsetInCU: 0xBF3E, offset: 0xBF3E, size: 0x8, addend: 0x0, symName: __ZSt28__throw_bad_array_new_lengthB8ue170006v, symObjAddr: 0x131C, symBinAddr: 0x100003450, symSize: 0x34 }
  - { offsetInCU: 0xC4E8, offset: 0xC4E8, size: 0x8, addend: 0x0, symName: __ZNSt3__16vectorINS0_ImNS_9allocatorImEEEENS1_IS3_EEE26__swap_out_circular_bufferERNS_14__split_bufferIS3_RS4_EE, symObjAddr: 0x1E70, symBinAddr: 0x100003FA4, symSize: 0x110 }
  - { offsetInCU: 0xEAF3, offset: 0xEAF3, size: 0x8, addend: 0x0, symName: __Z10Board_initP5Boardm, symObjAddr: 0x0, symBinAddr: 0x100002134, symSize: 0xAC }
  - { offsetInCU: 0xEB29, offset: 0xEB29, size: 0x8, addend: 0x0, symName: __ZNSt3__16vectorINS0_ImNS_9allocatorImEEEENS1_IS3_EEE6resizeEmRKS3_, symObjAddr: 0xAC, symBinAddr: 0x1000021E0, symSize: 0xA4 }
  - { offsetInCU: 0xEB7D, offset: 0xEB7D, size: 0x8, addend: 0x0, symName: __ZNSt3__16vectorImNS_9allocatorImEEEC1EmRKm, symObjAddr: 0x150, symBinAddr: 0x100002284, symSize: 0x3C }
  - { offsetInCU: 0xEBC6, offset: 0xEBC6, size: 0x8, addend: 0x0, symName: __ZNSt3__16vectorImNS_9allocatorImEEED1B8ue170006Ev, symObjAddr: 0x18C, symBinAddr: 0x1000022C0, symSize: 0x2C }
  - { offsetInCU: 0xEBEE, offset: 0xEBEE, size: 0x8, addend: 0x0, symName: __ZNSt3__16vectorIbNS_9allocatorIbEEE6resizeEmb, symObjAddr: 0x1B8, symBinAddr: 0x1000022EC, symSize: 0x220 }
  - { offsetInCU: 0xEC8D, offset: 0xEC8D, size: 0x8, addend: 0x0, symName: __Z16Board_placeQueenP5Boardii, symObjAddr: 0x3D8, symBinAddr: 0x10000250C, symSize: 0x70 }
  - { offsetInCU: 0xECD2, offset: 0xECD2, size: 0x8, addend: 0x0, symName: __ZNSt3__16vectorINS0_ImNS_9allocatorImEEEENS1_IS3_EEEixB8ue170006Em, symObjAddr: 0x448, symBinAddr: 0x10000257C, symSize: 0x2C }
  - { offsetInCU: 0xED08, offset: 0xED08, size: 0x8, addend: 0x0, symName: __ZNSt3__16vectorImNS_9allocatorImEEEixB8ue170006Em, symObjAddr: 0x474, symBinAddr: 0x1000025A8, symSize: 0x24 }
  - { offsetInCU: 0xED3E, offset: 0xED3E, size: 0x8, addend: 0x0, symName: __ZNSt3__16vectorIbNS_9allocatorIbEEEixB8ue170006Em, symObjAddr: 0x498, symBinAddr: 0x1000025CC, symSize: 0x3C }
  - { offsetInCU: 0xED72, offset: 0xED72, size: 0x8, addend: 0x0, symName: __ZNSt3__115__bit_referenceINS_6vectorIbNS_9allocatorIbEEEELb1EEaSB8ue170006Eb, symObjAddr: 0x4D4, symBinAddr: 0x100002608, symSize: 0x6C }
  - { offsetInCU: 0xEDA5, offset: 0xEDA5, size: 0x8, addend: 0x0, symName: __Z17Board_removeQueenP5Boardii, symObjAddr: 0x540, symBinAddr: 0x100002674, symSize: 0x6C }
  - { offsetInCU: 0xEDE9, offset: 0xEDE9, size: 0x8, addend: 0x0, symName: __Z12Board_isSafePK5Boardii, symObjAddr: 0x5AC, symBinAddr: 0x1000026E0, symSize: 0x1F8 }
  - { offsetInCU: 0xEE86, offset: 0xEE86, size: 0x8, addend: 0x0, symName: __ZNKSt3__16vectorIbNS_9allocatorIbEEEixB8ue170006Em, symObjAddr: 0x7A4, symBinAddr: 0x1000028D8, symSize: 0x3C }
  - { offsetInCU: 0xEEBA, offset: 0xEEBA, size: 0x8, addend: 0x0, symName: __ZNKSt3__121__bit_const_referenceINS_6vectorIbNS_9allocatorIbEEEEEcvbB8ue170006Ev, symObjAddr: 0x7E0, symBinAddr: 0x100002914, symSize: 0x2C }
  - { offsetInCU: 0xEEDF, offset: 0xEEDF, size: 0x8, addend: 0x0, symName: __ZNKSt3__16vectorINS0_ImNS_9allocatorImEEEENS1_IS3_EEEixB8ue170006Em, symObjAddr: 0x80C, symBinAddr: 0x100002940, symSize: 0x2C }
  - { offsetInCU: 0xEF15, offset: 0xEF15, size: 0x8, addend: 0x0, symName: __ZNKSt3__16vectorImNS_9allocatorImEEEixB8ue170006Em, symObjAddr: 0x838, symBinAddr: 0x10000296C, symSize: 0x24 }
  - { offsetInCU: 0xEF4B, offset: 0xEF4B, size: 0x8, addend: 0x0, symName: __Z13Board_displayPK5Board, symObjAddr: 0x85C, symBinAddr: 0x100002990, symSize: 0xFC }
  - { offsetInCU: 0xEFAC, offset: 0xEFAC, size: 0x8, addend: 0x0, symName: __ZNSt3__113basic_ostreamIcNS_11char_traitsIcEEElsB8ue170006EPFRS3_S4_E, symObjAddr: 0x9A0, symBinAddr: 0x100002AD4, symSize: 0x2C }
  - { offsetInCU: 0xEFDF, offset: 0xEFDF, size: 0x8, addend: 0x0, symName: __ZNSt3__16vectorImNS_9allocatorImEEEC2EmRKm, symObjAddr: 0xA24, symBinAddr: 0x100002B58, symSize: 0xDC }
  - { offsetInCU: 0xF047, offset: 0xF047, size: 0x8, addend: 0x0, symName: __ZNSt3__117__compressed_pairIPmNS_9allocatorImEEEC1B8ue170006IDnNS_18__default_init_tagEEEOT_OT0_, symObjAddr: 0xB00, symBinAddr: 0x100002C34, symSize: 0x3C }
  - { offsetInCU: 0xF09E, offset: 0xF09E, size: 0x8, addend: 0x0, symName: __ZNSt3__16vectorImNS_9allocatorImEEE16__destroy_vectorC1B8ue170006ERS3_, symObjAddr: 0xB7C, symBinAddr: 0x100002CB0, symSize: 0x34 }
  - { offsetInCU: 0xF0D6, offset: 0xF0D6, size: 0x8, addend: 0x0, symName: __ZNSt3__16vectorImNS_9allocatorImEEE11__vallocateB8ue170006Em, symObjAddr: 0xBB0, symBinAddr: 0x100002CE4, symSize: 0xAC }
  - { offsetInCU: 0xF118, offset: 0xF118, size: 0x8, addend: 0x0, symName: __ZNSt3__16vectorImNS_9allocatorImEEE18__construct_at_endEmRKm, symObjAddr: 0xC5C, symBinAddr: 0x100002D90, symSize: 0xD0 }
  - { offsetInCU: 0xF198, offset: 0xF198, size: 0x8, addend: 0x0, symName: __ZNSt3__128__exception_guard_exceptionsINS_6vectorImNS_9allocatorImEEE16__destroy_vectorEE10__completeB8ue170006Ev, symObjAddr: 0xD2C, symBinAddr: 0x100002E60, symSize: 0x1C }
  - { offsetInCU: 0xF1BD, offset: 0xF1BD, size: 0x8, addend: 0x0, symName: __ZNSt3__128__exception_guard_exceptionsINS_6vectorImNS_9allocatorImEEE16__destroy_vectorEED1B8ue170006Ev, symObjAddr: 0xD48, symBinAddr: 0x100002E7C, symSize: 0x2C }
  - { offsetInCU: 0xF1E6, offset: 0xF1E6, size: 0x8, addend: 0x0, symName: __ZNSt3__117__compressed_pairIPmNS_9allocatorImEEEC2B8ue170006IDnNS_18__default_init_tagEEEOT_OT0_, symObjAddr: 0xD74, symBinAddr: 0x100002EA8, symSize: 0x40 }
  - { offsetInCU: 0xF23D, offset: 0xF23D, size: 0x8, addend: 0x0, symName: __ZNSt3__122__compressed_pair_elemIPmLi0ELb0EEC2B8ue170006IDnvEEOT_, symObjAddr: 0xDB4, symBinAddr: 0x100002EE8, symSize: 0x1C }
  - { offsetInCU: 0xF27E, offset: 0xF27E, size: 0x8, addend: 0x0, symName: __ZNSt3__122__compressed_pair_elemINS_9allocatorImEELi1ELb1EEC2B8ue170006ENS_18__default_init_tagE, symObjAddr: 0xDD0, symBinAddr: 0x100002F04, symSize: 0x2C }
  - { offsetInCU: 0xF2B1, offset: 0xF2B1, size: 0x8, addend: 0x0, symName: __ZNSt3__19allocatorImEC2B8ue170006Ev, symObjAddr: 0xDFC, symBinAddr: 0x100002F30, symSize: 0x2C }
  - { offsetInCU: 0xF2DA, offset: 0xF2DA, size: 0x8, addend: 0x0, symName: __ZNSt3__116__non_trivial_ifILb1ENS_9allocatorImEEEC2B8ue170006Ev, symObjAddr: 0xE28, symBinAddr: 0x100002F5C, symSize: 0x14 }
  - { offsetInCU: 0xF303, offset: 0xF303, size: 0x8, addend: 0x0, symName: __ZNSt3__128__exception_guard_exceptionsINS_6vectorImNS_9allocatorImEEE16__destroy_vectorEEC1B8ue170006ES5_, symObjAddr: 0xE3C, symBinAddr: 0x100002F70, symSize: 0x34 }
  - { offsetInCU: 0xF33A, offset: 0xF33A, size: 0x8, addend: 0x0, symName: __ZNSt3__128__exception_guard_exceptionsINS_6vectorImNS_9allocatorImEEE16__destroy_vectorEEC2B8ue170006ES5_, symObjAddr: 0xE70, symBinAddr: 0x100002FA4, symSize: 0x24 }
  - { offsetInCU: 0xF371, offset: 0xF371, size: 0x8, addend: 0x0, symName: __ZNSt3__16vectorImNS_9allocatorImEEE16__destroy_vectorC2B8ue170006ERS3_, symObjAddr: 0xE94, symBinAddr: 0x100002FC8, symSize: 0x20 }
  - { offsetInCU: 0xF3A8, offset: 0xF3A8, size: 0x8, addend: 0x0, symName: __ZNKSt3__16vectorImNS_9allocatorImEEE8max_sizeEv, symObjAddr: 0xEB4, symBinAddr: 0x100002FE8, symSize: 0x60 }
  - { offsetInCU: 0xF3CF, offset: 0xF3CF, size: 0x8, addend: 0x0, symName: __ZNKSt3__16vectorImNS_9allocatorImEEE20__throw_length_errorB8ue170006Ev, symObjAddr: 0xF14, symBinAddr: 0x100003048, symSize: 0x1C }
  - { offsetInCU: 0xF3F4, offset: 0xF3F4, size: 0x8, addend: 0x0, symName: __ZNSt3__16vectorImNS_9allocatorImEEE7__allocB8ue170006Ev, symObjAddr: 0xF70, symBinAddr: 0x1000030A4, symSize: 0x28 }
  - { offsetInCU: 0xF419, offset: 0xF419, size: 0x8, addend: 0x0, symName: __ZNSt3__16vectorImNS_9allocatorImEEE9__end_capB8ue170006Ev, symObjAddr: 0xF98, symBinAddr: 0x1000030CC, symSize: 0x28 }
  - { offsetInCU: 0xF43E, offset: 0xF43E, size: 0x8, addend: 0x0, symName: __ZNKSt3__16vectorImNS_9allocatorImEEE14__annotate_newB8ue170006Em, symObjAddr: 0xFC0, symBinAddr: 0x1000030F4, symSize: 0xAC }
  - { offsetInCU: 0xF47C, offset: 0xF47C, size: 0x8, addend: 0x0, symName: __ZNSt3__116allocator_traitsINS_9allocatorImEEE8max_sizeB8ue170006IS2_vEEmRKS2_, symObjAddr: 0x1098, symBinAddr: 0x1000031CC, symSize: 0x24 }
  - { offsetInCU: 0xF4AA, offset: 0xF4AA, size: 0x8, addend: 0x0, symName: __ZNKSt3__16vectorImNS_9allocatorImEEE7__allocB8ue170006Ev, symObjAddr: 0x10BC, symBinAddr: 0x1000031F0, symSize: 0x28 }
  - { offsetInCU: 0xF4CF, offset: 0xF4CF, size: 0x8, addend: 0x0, symName: __ZNSt3__114numeric_limitsIlE3maxB8ue170006Ev, symObjAddr: 0x10E4, symBinAddr: 0x100003218, symSize: 0x14 }
  - { offsetInCU: 0xF4ED, offset: 0xF4ED, size: 0x8, addend: 0x0, symName: __ZNKSt3__16__lessIvvEclB8ue170006ImmEEbRKT_RKT0_, symObjAddr: 0x1158, symBinAddr: 0x10000328C, symSize: 0x34 }
  - { offsetInCU: 0xF540, offset: 0xF540, size: 0x8, addend: 0x0, symName: __ZNKSt3__19allocatorImE8max_sizeB8ue170006Ev, symObjAddr: 0x118C, symBinAddr: 0x1000032C0, symSize: 0x14 }
  - { offsetInCU: 0xF565, offset: 0xF565, size: 0x8, addend: 0x0, symName: __ZNKSt3__117__compressed_pairIPmNS_9allocatorImEEE6secondB8ue170006Ev, symObjAddr: 0x11A0, symBinAddr: 0x1000032D4, symSize: 0x24 }
  - { offsetInCU: 0xF58A, offset: 0xF58A, size: 0x8, addend: 0x0, symName: __ZNKSt3__122__compressed_pair_elemINS_9allocatorImEELi1ELb1EE5__getB8ue170006Ev, symObjAddr: 0x11C4, symBinAddr: 0x1000032F8, symSize: 0x14 }
  - { offsetInCU: 0xF5AF, offset: 0xF5AF, size: 0x8, addend: 0x0, symName: __ZNSt3__123__libcpp_numeric_limitsIlLb1EE3maxB8ue170006Ev, symObjAddr: 0x11D8, symBinAddr: 0x10000330C, symSize: 0x8 }
  - { offsetInCU: 0xF5C3, offset: 0xF5C3, size: 0x8, addend: 0x0, symName: __ZNSt12length_errorC1B8ue170006EPKc, symObjAddr: 0x1244, symBinAddr: 0x100003378, symSize: 0x34 }
  - { offsetInCU: 0xF5FA, offset: 0xF5FA, size: 0x8, addend: 0x0, symName: __ZNSt12length_errorC2B8ue170006EPKc, symObjAddr: 0x1278, symBinAddr: 0x1000033AC, symSize: 0x4C }
  - { offsetInCU: 0xF631, offset: 0xF631, size: 0x8, addend: 0x0, symName: __ZNSt3__19allocatorImE8allocateB8ue170006Em, symObjAddr: 0x12C4, symBinAddr: 0x1000033F8, symSize: 0x58 }
  - { offsetInCU: 0xF664, offset: 0xF664, size: 0x8, addend: 0x0, symName: __ZNSt3__117__compressed_pairIPmNS_9allocatorImEEE6secondB8ue170006Ev, symObjAddr: 0x139C, symBinAddr: 0x1000034D0, symSize: 0x24 }
  - { offsetInCU: 0xF689, offset: 0xF689, size: 0x8, addend: 0x0, symName: __ZNSt3__122__compressed_pair_elemINS_9allocatorImEELi1ELb1EE5__getB8ue170006Ev, symObjAddr: 0x13C0, symBinAddr: 0x1000034F4, symSize: 0x14 }
  - { offsetInCU: 0xF6AE, offset: 0xF6AE, size: 0x8, addend: 0x0, symName: __ZNSt3__117__compressed_pairIPmNS_9allocatorImEEE5firstB8ue170006Ev, symObjAddr: 0x13D4, symBinAddr: 0x100003508, symSize: 0x24 }
  - { offsetInCU: 0xF6D3, offset: 0xF6D3, size: 0x8, addend: 0x0, symName: __ZNSt3__122__compressed_pair_elemIPmLi0ELb0EE5__getB8ue170006Ev, symObjAddr: 0x13F8, symBinAddr: 0x10000352C, symSize: 0x14 }
  - { offsetInCU: 0xF6F8, offset: 0xF6F8, size: 0x8, addend: 0x0, symName: __ZNKSt3__16vectorImNS_9allocatorImEEE31__annotate_contiguous_containerB8ue170006EPKvS5_S5_S5_, symObjAddr: 0x140C, symBinAddr: 0x100003540, symSize: 0x20 }
  - { offsetInCU: 0xF749, offset: 0xF749, size: 0x8, addend: 0x0, symName: __ZNKSt3__16vectorImNS_9allocatorImEEE4dataB8ue170006Ev, symObjAddr: 0x142C, symBinAddr: 0x100003560, symSize: 0x28 }
  - { offsetInCU: 0xF76E, offset: 0xF76E, size: 0x8, addend: 0x0, symName: __ZNKSt3__16vectorImNS_9allocatorImEEE8capacityB8ue170006Ev, symObjAddr: 0x1454, symBinAddr: 0x100003588, symSize: 0x40 }
  - { offsetInCU: 0xF793, offset: 0xF793, size: 0x8, addend: 0x0, symName: __ZNKSt3__16vectorImNS_9allocatorImEEE9__end_capB8ue170006Ev, symObjAddr: 0x14A8, symBinAddr: 0x1000035DC, symSize: 0x28 }
  - { offsetInCU: 0xF7B8, offset: 0xF7B8, size: 0x8, addend: 0x0, symName: __ZNKSt3__117__compressed_pairIPmNS_9allocatorImEEE5firstB8ue170006Ev, symObjAddr: 0x14D0, symBinAddr: 0x100003604, symSize: 0x24 }
  - { offsetInCU: 0xF7DD, offset: 0xF7DD, size: 0x8, addend: 0x0, symName: __ZNKSt3__122__compressed_pair_elemIPmLi0ELb0EE5__getB8ue170006Ev, symObjAddr: 0x14F4, symBinAddr: 0x100003628, symSize: 0x14 }
  - { offsetInCU: 0xF81B, offset: 0xF81B, size: 0x8, addend: 0x0, symName: __ZNSt3__16vectorImNS_9allocatorImEEE21_ConstructTransactionC1B8ue170006ERS3_m, symObjAddr: 0x1508, symBinAddr: 0x10000363C, symSize: 0x3C }
  - { offsetInCU: 0xF862, offset: 0xF862, size: 0x8, addend: 0x0, symName: __ZNSt3__116allocator_traitsINS_9allocatorImEEE9constructB8ue170006ImJRKmEvEEvRS2_PT_DpOT0_, symObjAddr: 0x1544, symBinAddr: 0x100003678, symSize: 0x34 }
  - { offsetInCU: 0xF8B9, offset: 0xF8B9, size: 0x8, addend: 0x0, symName: __ZNSt3__16vectorImNS_9allocatorImEEE21_ConstructTransactionD1B8ue170006Ev, symObjAddr: 0x1578, symBinAddr: 0x1000036AC, symSize: 0x2C }
  - { offsetInCU: 0xF8E2, offset: 0xF8E2, size: 0x8, addend: 0x0, symName: __ZNSt3__16vectorImNS_9allocatorImEEE21_ConstructTransactionC2B8ue170006ERS3_m, symObjAddr: 0x15A4, symBinAddr: 0x1000036D8, symSize: 0x44 }
  - { offsetInCU: 0xF929, offset: 0xF929, size: 0x8, addend: 0x0, symName: __ZNSt3__19allocatorImE9constructB8ue170006ImJRKmEEEvPT_DpOT0_, symObjAddr: 0x15E8, symBinAddr: 0x10000371C, symSize: 0x28 }
  - { offsetInCU: 0xF97E, offset: 0xF97E, size: 0x8, addend: 0x0, symName: __ZNSt3__16vectorImNS_9allocatorImEEE21_ConstructTransactionD2B8ue170006Ev, symObjAddr: 0x1610, symBinAddr: 0x100003744, symSize: 0x20 }
  - { offsetInCU: 0xF9A7, offset: 0xF9A7, size: 0x8, addend: 0x0, symName: __ZNSt3__128__exception_guard_exceptionsINS_6vectorImNS_9allocatorImEEE16__destroy_vectorEED2B8ue170006Ev, symObjAddr: 0x1630, symBinAddr: 0x100003764, symSize: 0x50 }
  - { offsetInCU: 0xF9D0, offset: 0xF9D0, size: 0x8, addend: 0x0, symName: __ZNSt3__16vectorImNS_9allocatorImEEE16__destroy_vectorclB8ue170006Ev, symObjAddr: 0x1680, symBinAddr: 0x1000037B4, symSize: 0x90 }
  - { offsetInCU: 0xF9F5, offset: 0xF9F5, size: 0x8, addend: 0x0, symName: __ZNSt3__16vectorImNS_9allocatorImEEE7__clearB8ue170006Ev, symObjAddr: 0x1710, symBinAddr: 0x100003844, symSize: 0x28 }
  - { offsetInCU: 0xFA1A, offset: 0xFA1A, size: 0x8, addend: 0x0, symName: __ZNKSt3__16vectorImNS_9allocatorImEEE17__annotate_deleteB8ue170006Ev, symObjAddr: 0x1738, symBinAddr: 0x10000386C, symSize: 0xB8 }
  - { offsetInCU: 0xFA3F, offset: 0xFA3F, size: 0x8, addend: 0x0, symName: __ZNSt3__116allocator_traitsINS_9allocatorImEEE10deallocateB8ue170006ERS2_Pmm, symObjAddr: 0x17F0, symBinAddr: 0x100003924, symSize: 0x34 }
  - { offsetInCU: 0xFA81, offset: 0xFA81, size: 0x8, addend: 0x0, symName: __ZNSt3__16vectorImNS_9allocatorImEEE22__base_destruct_at_endB8ue170006EPm, symObjAddr: 0x1824, symBinAddr: 0x100003958, symSize: 0x8C }
  - { offsetInCU: 0xFAC4, offset: 0xFAC4, size: 0x8, addend: 0x0, symName: __ZNSt3__116allocator_traitsINS_9allocatorImEEE7destroyB8ue170006ImvEEvRS2_PT_, symObjAddr: 0x18B0, symBinAddr: 0x1000039E4, symSize: 0x2C }
  - { offsetInCU: 0xFB01, offset: 0xFB01, size: 0x8, addend: 0x0, symName: __ZNSt3__19allocatorImE7destroyB8ue170006EPm, symObjAddr: 0x18DC, symBinAddr: 0x100003A10, symSize: 0x14 }
  - { offsetInCU: 0xFB34, offset: 0xFB34, size: 0x8, addend: 0x0, symName: __ZNKSt3__16vectorImNS_9allocatorImEEE4sizeB8ue170006Ev, symObjAddr: 0x18F0, symBinAddr: 0x100003A24, symSize: 0x28 }
  - { offsetInCU: 0xFB59, offset: 0xFB59, size: 0x8, addend: 0x0, symName: __ZNSt3__19allocatorImE10deallocateB8ue170006EPmm, symObjAddr: 0x1918, symBinAddr: 0x100003A4C, symSize: 0x40 }
  - { offsetInCU: 0xFB9A, offset: 0xFB9A, size: 0x8, addend: 0x0, symName: __ZNSt3__16vectorImNS_9allocatorImEEED2B8ue170006Ev, symObjAddr: 0x19D4, symBinAddr: 0x100003B08, symSize: 0x40 }
  - { offsetInCU: 0xFBC3, offset: 0xFBC3, size: 0x8, addend: 0x0, symName: __ZNKSt3__16vectorINS0_ImNS_9allocatorImEEEENS1_IS3_EEE4sizeB8ue170006Ev, symObjAddr: 0x1A14, symBinAddr: 0x100003B48, symSize: 0x28 }
  - { offsetInCU: 0xFBE7, offset: 0xFBE7, size: 0x8, addend: 0x0, symName: __ZNSt3__16vectorINS0_ImNS_9allocatorImEEEENS1_IS3_EEE8__appendEmRKS3_, symObjAddr: 0x1A3C, symBinAddr: 0x100003B70, symSize: 0x114 }
  - { offsetInCU: 0xFC50, offset: 0xFC50, size: 0x8, addend: 0x0, symName: __ZNSt3__16vectorINS0_ImNS_9allocatorImEEEENS1_IS3_EEE17__destruct_at_endB8ue170006EPS3_, symObjAddr: 0x1B50, symBinAddr: 0x100003C84, symSize: 0x4C }
  - { offsetInCU: 0xFC93, offset: 0xFC93, size: 0x8, addend: 0x0, symName: __ZNSt3__16vectorINS0_ImNS_9allocatorImEEEENS1_IS3_EEE9__end_capB8ue170006Ev, symObjAddr: 0x1B9C, symBinAddr: 0x100003CD0, symSize: 0x28 }
  - { offsetInCU: 0xFCB7, offset: 0xFCB7, size: 0x8, addend: 0x0, symName: __ZNSt3__16vectorINS0_ImNS_9allocatorImEEEENS1_IS3_EEE18__construct_at_endEmRKS3_, symObjAddr: 0x1BC4, symBinAddr: 0x100003CF8, symSize: 0xD0 }
  - { offsetInCU: 0xFD37, offset: 0xFD37, size: 0x8, addend: 0x0, symName: __ZNSt3__16vectorINS0_ImNS_9allocatorImEEEENS1_IS3_EEE7__allocB8ue170006Ev, symObjAddr: 0x1C94, symBinAddr: 0x100003DC8, symSize: 0x28 }
  - { offsetInCU: 0xFD5B, offset: 0xFD5B, size: 0x8, addend: 0x0, symName: __ZNKSt3__16vectorINS0_ImNS_9allocatorImEEEENS1_IS3_EEE11__recommendB8ue170006Em, symObjAddr: 0x1CBC, symBinAddr: 0x100003DF0, symSize: 0xB4 }
  - { offsetInCU: 0xFDAF, offset: 0xFDAF, size: 0x8, addend: 0x0, symName: __ZNSt3__114__split_bufferINS_6vectorImNS_9allocatorImEEEERNS2_IS4_EEEC1EmmS6_, symObjAddr: 0x1D70, symBinAddr: 0x100003EA4, symSize: 0x44 }
  - { offsetInCU: 0xFE03, offset: 0xFE03, size: 0x8, addend: 0x0, symName: __ZNSt3__114__split_bufferINS_6vectorImNS_9allocatorImEEEERNS2_IS4_EEE18__construct_at_endEmRKS4_, symObjAddr: 0x1DB4, symBinAddr: 0x100003EE8, symSize: 0xBC }
  - { offsetInCU: 0xFE55, offset: 0xFE55, size: 0x8, addend: 0x0, symName: __ZNSt3__114__split_bufferINS_6vectorImNS_9allocatorImEEEERNS2_IS4_EEED1Ev, symObjAddr: 0x1F80, symBinAddr: 0x1000040B4, symSize: 0x2C }
  - { offsetInCU: 0xFE80, offset: 0xFE80, size: 0x8, addend: 0x0, symName: __ZNSt3__117__compressed_pairIPNS_6vectorImNS_9allocatorImEEEENS2_IS4_EEE5firstB8ue170006Ev, symObjAddr: 0x1FAC, symBinAddr: 0x1000040E0, symSize: 0x24 }
  - { offsetInCU: 0xFEA5, offset: 0xFEA5, size: 0x8, addend: 0x0, symName: __ZNSt3__122__compressed_pair_elemIPNS_6vectorImNS_9allocatorImEEEELi0ELb0EE5__getB8ue170006Ev, symObjAddr: 0x1FD0, symBinAddr: 0x100004104, symSize: 0x14 }
  - { offsetInCU: 0xFEE3, offset: 0xFEE3, size: 0x8, addend: 0x0, symName: __ZNSt3__16vectorINS0_ImNS_9allocatorImEEEENS1_IS3_EEE21_ConstructTransactionC1B8ue170006ERS5_m, symObjAddr: 0x1FE4, symBinAddr: 0x100004118, symSize: 0x3C }
  - { offsetInCU: 0xFF2A, offset: 0xFF2A, size: 0x8, addend: 0x0, symName: __ZNSt3__116allocator_traitsINS_9allocatorINS_6vectorImNS1_ImEEEEEEE9constructB8ue170006IS4_JRKS4_EvEEvRS5_PT_DpOT0_, symObjAddr: 0x2020, symBinAddr: 0x100004154, symSize: 0x34 }
  - { offsetInCU: 0xFF81, offset: 0xFF81, size: 0x8, addend: 0x0, symName: __ZNSt3__16vectorINS0_ImNS_9allocatorImEEEENS1_IS3_EEE21_ConstructTransactionD1B8ue170006Ev, symObjAddr: 0x2068, symBinAddr: 0x10000419C, symSize: 0x2C }
  - { offsetInCU: 0xFFAA, offset: 0xFFAA, size: 0x8, addend: 0x0, symName: __ZNSt3__16vectorINS0_ImNS_9allocatorImEEEENS1_IS3_EEE21_ConstructTransactionC2B8ue170006ERS5_m, symObjAddr: 0x2094, symBinAddr: 0x1000041C8, symSize: 0x4C }
  - { offsetInCU: 0xFFF1, offset: 0xFFF1, size: 0x8, addend: 0x0, symName: __ZNSt3__19allocatorINS_6vectorImNS0_ImEEEEE9constructB8ue170006IS3_JRKS3_EEEvPT_DpOT0_, symObjAddr: 0x20E0, symBinAddr: 0x100004214, symSize: 0x30 }
  - { offsetInCU: 0x10046, offset: 0x10046, size: 0x8, addend: 0x0, symName: __ZNSt3__16vectorImNS_9allocatorImEEEC1ERKS3_, symObjAddr: 0x2110, symBinAddr: 0x100004244, symSize: 0x34 }
  - { offsetInCU: 0x10080, offset: 0x10080, size: 0x8, addend: 0x0, symName: __ZNSt3__16vectorImNS_9allocatorImEEEC2ERKS3_, symObjAddr: 0x2144, symBinAddr: 0x100004278, symSize: 0x94 }
  - { offsetInCU: 0x100BA, offset: 0x100BA, size: 0x8, addend: 0x0, symName: __ZNSt3__116allocator_traitsINS_9allocatorImEEE37select_on_container_copy_constructionB8ue170006IS2_vvEES2_RKS2_, symObjAddr: 0x21D8, symBinAddr: 0x10000430C, symSize: 0x10 }
  - { offsetInCU: 0x100EE, offset: 0x100EE, size: 0x8, addend: 0x0, symName: __ZNSt3__117__compressed_pairIPmNS_9allocatorImEEEC1B8ue170006IDnS3_EEOT_OT0_, symObjAddr: 0x21E8, symBinAddr: 0x10000431C, symSize: 0x3C }
  - { offsetInCU: 0x10145, offset: 0x10145, size: 0x8, addend: 0x0, symName: __ZNSt3__16vectorImNS_9allocatorImEEE16__init_with_sizeB8ue170006IPmS5_EEvT_T0_m, symObjAddr: 0x2224, symBinAddr: 0x100004358, symSize: 0xB8 }
  - { offsetInCU: 0x101B8, offset: 0x101B8, size: 0x8, addend: 0x0, symName: __ZNSt3__117__compressed_pairIPmNS_9allocatorImEEEC2B8ue170006IDnS3_EEOT_OT0_, symObjAddr: 0x22DC, symBinAddr: 0x100004410, symSize: 0x44 }
  - { offsetInCU: 0x1020F, offset: 0x1020F, size: 0x8, addend: 0x0, symName: __ZNSt3__122__compressed_pair_elemINS_9allocatorImEELi1ELb1EEC2B8ue170006IS2_vEEOT_, symObjAddr: 0x2320, symBinAddr: 0x100004454, symSize: 0x18 }
  - { offsetInCU: 0x1024F, offset: 0x1024F, size: 0x8, addend: 0x0, symName: __ZNSt3__16vectorImNS_9allocatorImEEE18__construct_at_endIPmS5_EEvT_T0_m, symObjAddr: 0x2338, symBinAddr: 0x10000446C, symSize: 0x8C }
  - { offsetInCU: 0x102E2, offset: 0x102E2, size: 0x8, addend: 0x0, symName: __ZNSt3__14pairIPmS1_EC1B8ue170006IS1_S1_LPv0EEEOT_OT0_, symObjAddr: 0x2574, symBinAddr: 0x1000046A8, symSize: 0x3C }
  - { offsetInCU: 0x1033F, offset: 0x1033F, size: 0x8, addend: 0x0, symName: __ZNSt3__14pairIPmS1_EC2B8ue170006IS1_S1_LPv0EEEOT_OT0_, symObjAddr: 0x25B0, symBinAddr: 0x1000046E4, symSize: 0x34 }
  - { offsetInCU: 0x103A6, offset: 0x103A6, size: 0x8, addend: 0x0, symName: __ZNKSt3__114__copy_trivialclB8ue170006ImmLi0EEENS_4pairIPT_PT0_EES4_S4_S6_, symObjAddr: 0x2760, symBinAddr: 0x100004894, symSize: 0x48 }
  - { offsetInCU: 0x1040D, offset: 0x1040D, size: 0x8, addend: 0x0, symName: __ZNSt3__14pairIPmS1_EC1B8ue170006IRS1_S1_LPv0EEEOT_OT0_, symObjAddr: 0x28F0, symBinAddr: 0x100004A24, symSize: 0x3C }
  - { offsetInCU: 0x1046A, offset: 0x1046A, size: 0x8, addend: 0x0, symName: __ZNSt3__14pairIPmS1_EC2B8ue170006IRS1_S1_LPv0EEEOT_OT0_, symObjAddr: 0x292C, symBinAddr: 0x100004A60, symSize: 0x34 }
  - { offsetInCU: 0x104C7, offset: 0x104C7, size: 0x8, addend: 0x0, symName: __ZNSt3__118__unwrap_iter_implIPmLb1EE8__unwrapB8ue170006ES1_, symObjAddr: 0x2960, symBinAddr: 0x100004A94, symSize: 0x24 }
  - { offsetInCU: 0x104EA, offset: 0x104EA, size: 0x8, addend: 0x0, symName: __ZNSt3__118__unwrap_iter_implIPmLb1EE8__rewrapB8ue170006ES1_S1_, symObjAddr: 0x2984, symBinAddr: 0x100004AB8, symSize: 0x50 }
  - { offsetInCU: 0x1051B, offset: 0x1051B, size: 0x8, addend: 0x0, symName: __ZNSt3__16vectorINS0_ImNS_9allocatorImEEEENS1_IS3_EEE21_ConstructTransactionD2B8ue170006Ev, symObjAddr: 0x29D4, symBinAddr: 0x100004B08, symSize: 0x20 }
  - { offsetInCU: 0x10544, offset: 0x10544, size: 0x8, addend: 0x0, symName: __ZNSt3__117__compressed_pairIPNS_6vectorImNS_9allocatorImEEEENS2_IS4_EEE6secondB8ue170006Ev, symObjAddr: 0x29F4, symBinAddr: 0x100004B28, symSize: 0x24 }
  - { offsetInCU: 0x10569, offset: 0x10569, size: 0x8, addend: 0x0, symName: __ZNSt3__122__compressed_pair_elemINS_9allocatorINS_6vectorImNS1_ImEEEEEELi1ELb1EE5__getB8ue170006Ev, symObjAddr: 0x2A18, symBinAddr: 0x100004B4C, symSize: 0x14 }
  - { offsetInCU: 0x1058D, offset: 0x1058D, size: 0x8, addend: 0x0, symName: __ZNKSt3__16vectorINS0_ImNS_9allocatorImEEEENS1_IS3_EEE8max_sizeEv, symObjAddr: 0x2A2C, symBinAddr: 0x100004B60, symSize: 0x60 }
  - { offsetInCU: 0x105B4, offset: 0x105B4, size: 0x8, addend: 0x0, symName: __ZNKSt3__16vectorINS0_ImNS_9allocatorImEEEENS1_IS3_EEE20__throw_length_errorB8ue170006Ev, symObjAddr: 0x2A8C, symBinAddr: 0x100004BC0, symSize: 0x1C }
  - { offsetInCU: 0x105D9, offset: 0x105D9, size: 0x8, addend: 0x0, symName: __ZNKSt3__16vectorINS0_ImNS_9allocatorImEEEENS1_IS3_EEE8capacityB8ue170006Ev, symObjAddr: 0x2AA8, symBinAddr: 0x100004BDC, symSize: 0x40 }
  - { offsetInCU: 0x10608, offset: 0x10608, size: 0x8, addend: 0x0, symName: __ZNSt3__116allocator_traitsINS_9allocatorINS_6vectorImNS1_ImEEEEEEE8max_sizeB8ue170006IS5_vEEmRKS5_, symObjAddr: 0x2B14, symBinAddr: 0x100004C48, symSize: 0x24 }
  - { offsetInCU: 0x10636, offset: 0x10636, size: 0x8, addend: 0x0, symName: __ZNKSt3__16vectorINS0_ImNS_9allocatorImEEEENS1_IS3_EEE7__allocB8ue170006Ev, symObjAddr: 0x2B38, symBinAddr: 0x100004C6C, symSize: 0x28 }
  - { offsetInCU: 0x1065B, offset: 0x1065B, size: 0x8, addend: 0x0, symName: __ZNKSt3__19allocatorINS_6vectorImNS0_ImEEEEE8max_sizeB8ue170006Ev, symObjAddr: 0x2B60, symBinAddr: 0x100004C94, symSize: 0x18 }
  - { offsetInCU: 0x10680, offset: 0x10680, size: 0x8, addend: 0x0, symName: __ZNKSt3__117__compressed_pairIPNS_6vectorImNS_9allocatorImEEEENS2_IS4_EEE6secondB8ue170006Ev, symObjAddr: 0x2B78, symBinAddr: 0x100004CAC, symSize: 0x24 }
  - { offsetInCU: 0x106A5, offset: 0x106A5, size: 0x8, addend: 0x0, symName: __ZNKSt3__122__compressed_pair_elemINS_9allocatorINS_6vectorImNS1_ImEEEEEELi1ELb1EE5__getB8ue170006Ev, symObjAddr: 0x2B9C, symBinAddr: 0x100004CD0, symSize: 0x14 }
  - { offsetInCU: 0x106CA, offset: 0x106CA, size: 0x8, addend: 0x0, symName: __ZNKSt3__16vectorINS0_ImNS_9allocatorImEEEENS1_IS3_EEE9__end_capB8ue170006Ev, symObjAddr: 0x2BB0, symBinAddr: 0x100004CE4, symSize: 0x28 }
  - { offsetInCU: 0x106EF, offset: 0x106EF, size: 0x8, addend: 0x0, symName: __ZNKSt3__117__compressed_pairIPNS_6vectorImNS_9allocatorImEEEENS2_IS4_EEE5firstB8ue170006Ev, symObjAddr: 0x2BD8, symBinAddr: 0x100004D0C, symSize: 0x24 }
  - { offsetInCU: 0x10714, offset: 0x10714, size: 0x8, addend: 0x0, symName: __ZNKSt3__122__compressed_pair_elemIPNS_6vectorImNS_9allocatorImEEEELi0ELb0EE5__getB8ue170006Ev, symObjAddr: 0x2BFC, symBinAddr: 0x100004D30, symSize: 0x14 }
  - { offsetInCU: 0x10739, offset: 0x10739, size: 0x8, addend: 0x0, symName: __ZNSt3__114__split_bufferINS_6vectorImNS_9allocatorImEEEERNS2_IS4_EEEC2EmmS6_, symObjAddr: 0x2C64, symBinAddr: 0x100004D98, symSize: 0xE0 }
  - { offsetInCU: 0x107AB, offset: 0x107AB, size: 0x8, addend: 0x0, symName: __ZNSt3__117__compressed_pairIPNS_6vectorImNS_9allocatorImEEEERNS2_IS4_EEEC1B8ue170006IDnS7_EEOT_OT0_, symObjAddr: 0x2D44, symBinAddr: 0x100004E78, symSize: 0x3C }
  - { offsetInCU: 0x10802, offset: 0x10802, size: 0x8, addend: 0x0, symName: __ZNSt3__114__split_bufferINS_6vectorImNS_9allocatorImEEEERNS2_IS4_EEE7__allocB8ue170006Ev, symObjAddr: 0x2DC0, symBinAddr: 0x100004EF4, symSize: 0x28 }
  - { offsetInCU: 0x10827, offset: 0x10827, size: 0x8, addend: 0x0, symName: __ZNSt3__114__split_bufferINS_6vectorImNS_9allocatorImEEEERNS2_IS4_EEE9__end_capB8ue170006Ev, symObjAddr: 0x2DE8, symBinAddr: 0x100004F1C, symSize: 0x28 }
  - { offsetInCU: 0x1084C, offset: 0x1084C, size: 0x8, addend: 0x0, symName: __ZNSt3__117__compressed_pairIPNS_6vectorImNS_9allocatorImEEEERNS2_IS4_EEEC2B8ue170006IDnS7_EEOT_OT0_, symObjAddr: 0x2E10, symBinAddr: 0x100004F44, symSize: 0x48 }
  - { offsetInCU: 0x108A3, offset: 0x108A3, size: 0x8, addend: 0x0, symName: __ZNSt3__122__compressed_pair_elemIPNS_6vectorImNS_9allocatorImEEEELi0ELb0EEC2B8ue170006IDnvEEOT_, symObjAddr: 0x2E58, symBinAddr: 0x100004F8C, symSize: 0x1C }
  - { offsetInCU: 0x108E4, offset: 0x108E4, size: 0x8, addend: 0x0, symName: __ZNSt3__122__compressed_pair_elemIRNS_9allocatorINS_6vectorImNS1_ImEEEEEELi1ELb0EEC2B8ue170006IS6_vEEOT_, symObjAddr: 0x2E74, symBinAddr: 0x100004FA8, symSize: 0x20 }
  - { offsetInCU: 0x10925, offset: 0x10925, size: 0x8, addend: 0x0, symName: __ZNSt3__19allocatorINS_6vectorImNS0_ImEEEEE8allocateB8ue170006Em, symObjAddr: 0x2E94, symBinAddr: 0x100004FC8, symSize: 0x5C }
  - { offsetInCU: 0x10958, offset: 0x10958, size: 0x8, addend: 0x0, symName: __ZNSt3__117__compressed_pairIPNS_6vectorImNS_9allocatorImEEEERNS2_IS4_EEE6secondB8ue170006Ev, symObjAddr: 0x2EF0, symBinAddr: 0x100005024, symSize: 0x28 }
  - { offsetInCU: 0x1097D, offset: 0x1097D, size: 0x8, addend: 0x0, symName: __ZNSt3__122__compressed_pair_elemIRNS_9allocatorINS_6vectorImNS1_ImEEEEEELi1ELb0EE5__getB8ue170006Ev, symObjAddr: 0x2F18, symBinAddr: 0x10000504C, symSize: 0x18 }
  - { offsetInCU: 0x109A2, offset: 0x109A2, size: 0x8, addend: 0x0, symName: __ZNSt3__117__compressed_pairIPNS_6vectorImNS_9allocatorImEEEERNS2_IS4_EEE5firstB8ue170006Ev, symObjAddr: 0x2F30, symBinAddr: 0x100005064, symSize: 0x24 }
  - { offsetInCU: 0x109D1, offset: 0x109D1, size: 0x8, addend: 0x0, symName: __ZNSt3__114__split_bufferINS_6vectorImNS_9allocatorImEEEERNS2_IS4_EEE21_ConstructTransactionC1B8ue170006EPPS4_m, symObjAddr: 0x2F54, symBinAddr: 0x100005088, symSize: 0x3C }
  - { offsetInCU: 0x10A16, offset: 0x10A16, size: 0x8, addend: 0x0, symName: __ZNSt3__114__split_bufferINS_6vectorImNS_9allocatorImEEEERNS2_IS4_EEE21_ConstructTransactionD1B8ue170006Ev, symObjAddr: 0x2F90, symBinAddr: 0x1000050C4, symSize: 0x2C }
  - { offsetInCU: 0x10A3F, offset: 0x10A3F, size: 0x8, addend: 0x0, symName: __ZNSt3__114__split_bufferINS_6vectorImNS_9allocatorImEEEERNS2_IS4_EEE21_ConstructTransactionC2B8ue170006EPPS4_m, symObjAddr: 0x2FBC, symBinAddr: 0x1000050F0, symSize: 0x4C }
  - { offsetInCU: 0x10A84, offset: 0x10A84, size: 0x8, addend: 0x0, symName: __ZNSt3__114__split_bufferINS_6vectorImNS_9allocatorImEEEERNS2_IS4_EEE21_ConstructTransactionD2B8ue170006Ev, symObjAddr: 0x3008, symBinAddr: 0x10000513C, symSize: 0x20 }
  - { offsetInCU: 0x10AAD, offset: 0x10AAD, size: 0x8, addend: 0x0, symName: __ZNKSt3__16vectorINS0_ImNS_9allocatorImEEEENS1_IS3_EEE17__annotate_deleteB8ue170006Ev, symObjAddr: 0x3028, symBinAddr: 0x10000515C, symSize: 0xD4 }
  - { offsetInCU: 0x10AD2, offset: 0x10AD2, size: 0x8, addend: 0x0, symName: __ZNSt3__116reverse_iteratorIPNS_6vectorImNS_9allocatorImEEEEEC1B8ue170006ES5_, symObjAddr: 0x3228, symBinAddr: 0x10000535C, symSize: 0x34 }
  - { offsetInCU: 0x10B09, offset: 0x10B09, size: 0x8, addend: 0x0, symName: __ZNKSt3__116reverse_iteratorIPNS_6vectorImNS_9allocatorImEEEEE4baseB8ue170006Ev, symObjAddr: 0x325C, symBinAddr: 0x100005390, symSize: 0x18 }
  - { offsetInCU: 0x10B2E, offset: 0x10B2E, size: 0x8, addend: 0x0, symName: __ZNKSt3__16vectorINS0_ImNS_9allocatorImEEEENS1_IS3_EEE14__annotate_newB8ue170006Em, symObjAddr: 0x32B0, symBinAddr: 0x1000053E4, symSize: 0xC8 }
  - { offsetInCU: 0x10B62, offset: 0x10B62, size: 0x8, addend: 0x0, symName: __ZNKSt3__16vectorINS0_ImNS_9allocatorImEEEENS1_IS3_EEE31__annotate_contiguous_containerB8ue170006EPKvS7_S7_S7_, symObjAddr: 0x3378, symBinAddr: 0x1000054AC, symSize: 0x20 }
  - { offsetInCU: 0x10BB3, offset: 0x10BB3, size: 0x8, addend: 0x0, symName: __ZNKSt3__16vectorINS0_ImNS_9allocatorImEEEENS1_IS3_EEE4dataB8ue170006Ev, symObjAddr: 0x3398, symBinAddr: 0x1000054CC, symSize: 0x28 }
  - { offsetInCU: 0x10BD8, offset: 0x10BD8, size: 0x8, addend: 0x0, symName: __ZNSt3__129_AllocatorDestroyRangeReverseINS_9allocatorINS_6vectorImNS1_ImEEEEEENS_16reverse_iteratorIPS4_EEEC1B8ue170006ERS5_RS8_SB_, symObjAddr: 0x340C, symBinAddr: 0x100005540, symSize: 0x44 }
  - { offsetInCU: 0x10C2E, offset: 0x10C2E, size: 0x8, addend: 0x0, symName: __ZNSt3__116allocator_traitsINS_9allocatorINS_6vectorImNS1_ImEEEEEEE9constructB8ue170006IS4_JS4_EvEEvRS5_PT_DpOT0_, symObjAddr: 0x3498, symBinAddr: 0x1000055CC, symSize: 0x34 }
  - { offsetInCU: 0x10C85, offset: 0x10C85, size: 0x8, addend: 0x0, symName: __ZNKSt3__116reverse_iteratorIPNS_6vectorImNS_9allocatorImEEEEEdeB8ue170006Ev, symObjAddr: 0x34F0, symBinAddr: 0x100005624, symSize: 0x28 }
  - { offsetInCU: 0x10CB8, offset: 0x10CB8, size: 0x8, addend: 0x0, symName: __ZNSt3__116reverse_iteratorIPNS_6vectorImNS_9allocatorImEEEEEppB8ue170006Ev, symObjAddr: 0x3518, symBinAddr: 0x10000564C, symSize: 0x20 }
  - { offsetInCU: 0x10CDD, offset: 0x10CDD, size: 0x8, addend: 0x0, symName: __ZNSt3__128__exception_guard_exceptionsINS_29_AllocatorDestroyRangeReverseINS_9allocatorINS_6vectorImNS2_ImEEEEEENS_16reverse_iteratorIPS5_EEEEE10__completeB8ue170006Ev, symObjAddr: 0x3538, symBinAddr: 0x10000566C, symSize: 0x1C }
  - { offsetInCU: 0x10D02, offset: 0x10D02, size: 0x8, addend: 0x0, symName: __ZNSt3__128__exception_guard_exceptionsINS_29_AllocatorDestroyRangeReverseINS_9allocatorINS_6vectorImNS2_ImEEEEEENS_16reverse_iteratorIPS5_EEEEED1B8ue170006Ev, symObjAddr: 0x3554, symBinAddr: 0x100005688, symSize: 0x2C }
  - { offsetInCU: 0x10D2B, offset: 0x10D2B, size: 0x8, addend: 0x0, symName: __ZNSt3__128__exception_guard_exceptionsINS_29_AllocatorDestroyRangeReverseINS_9allocatorINS_6vectorImNS2_ImEEEEEENS_16reverse_iteratorIPS5_EEEEEC1B8ue170006ESA_, symObjAddr: 0x3580, symBinAddr: 0x1000056B4, symSize: 0x34 }
  - { offsetInCU: 0x10D63, offset: 0x10D63, size: 0x8, addend: 0x0, symName: __ZNSt3__128__exception_guard_exceptionsINS_29_AllocatorDestroyRangeReverseINS_9allocatorINS_6vectorImNS2_ImEEEEEENS_16reverse_iteratorIPS5_EEEEEC2B8ue170006ESA_, symObjAddr: 0x35B4, symBinAddr: 0x1000056E8, symSize: 0x30 }
  - { offsetInCU: 0x10D9B, offset: 0x10D9B, size: 0x8, addend: 0x0, symName: __ZNSt3__129_AllocatorDestroyRangeReverseINS_9allocatorINS_6vectorImNS1_ImEEEEEENS_16reverse_iteratorIPS4_EEEC2B8ue170006ERS5_RS8_SB_, symObjAddr: 0x35E4, symBinAddr: 0x100005718, symSize: 0x38 }
  - { offsetInCU: 0x10DF1, offset: 0x10DF1, size: 0x8, addend: 0x0, symName: __ZNSt3__19allocatorINS_6vectorImNS0_ImEEEEE9constructB8ue170006IS3_JS3_EEEvPT_DpOT0_, symObjAddr: 0x361C, symBinAddr: 0x100005750, symSize: 0x30 }
  - { offsetInCU: 0x10E46, offset: 0x10E46, size: 0x8, addend: 0x0, symName: __ZNSt3__16vectorImNS_9allocatorImEEEC1B8ue170006EOS3_, symObjAddr: 0x364C, symBinAddr: 0x100005780, symSize: 0x34 }
  - { offsetInCU: 0x10E80, offset: 0x10E80, size: 0x8, addend: 0x0, symName: __ZNSt3__16vectorImNS_9allocatorImEEEC2B8ue170006EOS3_, symObjAddr: 0x3680, symBinAddr: 0x1000057B4, symSize: 0xC4 }
  - { offsetInCU: 0x10EBF, offset: 0x10EBF, size: 0x8, addend: 0x0, symName: __ZNSt3__119__to_address_helperINS_16reverse_iteratorIPNS_6vectorImNS_9allocatorImEEEEEEvE6__callB8ue170006ERKS7_, symObjAddr: 0x3744, symBinAddr: 0x100005878, symSize: 0x38 }
  - { offsetInCU: 0x10EE2, offset: 0x10EE2, size: 0x8, addend: 0x0, symName: __ZNKSt3__116reverse_iteratorIPNS_6vectorImNS_9allocatorImEEEEEptB8ue170006Ev, symObjAddr: 0x377C, symBinAddr: 0x1000058B0, symSize: 0x24 }
  - { offsetInCU: 0x10F07, offset: 0x10F07, size: 0x8, addend: 0x0, symName: __ZNSt3__128__exception_guard_exceptionsINS_29_AllocatorDestroyRangeReverseINS_9allocatorINS_6vectorImNS2_ImEEEEEENS_16reverse_iteratorIPS5_EEEEED2B8ue170006Ev, symObjAddr: 0x37A0, symBinAddr: 0x1000058D4, symSize: 0x50 }
  - { offsetInCU: 0x10F30, offset: 0x10F30, size: 0x8, addend: 0x0, symName: __ZNKSt3__129_AllocatorDestroyRangeReverseINS_9allocatorINS_6vectorImNS1_ImEEEEEENS_16reverse_iteratorIPS4_EEEclB8ue170006Ev, symObjAddr: 0x37F0, symBinAddr: 0x100005924, symSize: 0xB4 }
  - { offsetInCU: 0x10F56, offset: 0x10F56, size: 0x8, addend: 0x0, symName: __ZNSt3__116reverse_iteratorINS0_IPNS_6vectorImNS_9allocatorImEEEEEEEC1B8ue170006ES6_, symObjAddr: 0x3914, symBinAddr: 0x100005A48, symSize: 0x3C }
  - { offsetInCU: 0x10F8D, offset: 0x10F8D, size: 0x8, addend: 0x0, symName: __ZNSt3__116allocator_traitsINS_9allocatorINS_6vectorImNS1_ImEEEEEEE7destroyB8ue170006IS4_vEEvRS5_PT_, symObjAddr: 0x39B0, symBinAddr: 0x100005AE4, symSize: 0x2C }
  - { offsetInCU: 0x10FCA, offset: 0x10FCA, size: 0x8, addend: 0x0, symName: __ZNSt3__116reverse_iteratorINS0_IPNS_6vectorImNS_9allocatorImEEEEEEEppB8ue170006Ev, symObjAddr: 0x3A00, symBinAddr: 0x100005B34, symSize: 0x30 }
  - { offsetInCU: 0x10FEF, offset: 0x10FEF, size: 0x8, addend: 0x0, symName: __ZNKSt3__116reverse_iteratorINS0_IPNS_6vectorImNS_9allocatorImEEEEEEE4baseB8ue170006Ev, symObjAddr: 0x3A30, symBinAddr: 0x100005B64, symSize: 0x24 }
  - { offsetInCU: 0x11014, offset: 0x11014, size: 0x8, addend: 0x0, symName: __ZNSt3__19allocatorINS_6vectorImNS0_ImEEEEE7destroyB8ue170006EPS3_, symObjAddr: 0x3A54, symBinAddr: 0x100005B88, symSize: 0x28 }
  - { offsetInCU: 0x1104C, offset: 0x1104C, size: 0x8, addend: 0x0, symName: __ZNSt3__119__to_address_helperINS_16reverse_iteratorINS1_IPNS_6vectorImNS_9allocatorImEEEEEEEEvE6__callB8ue170006ERKS8_, symObjAddr: 0x3A7C, symBinAddr: 0x100005BB0, symSize: 0x38 }
  - { offsetInCU: 0x1106F, offset: 0x1106F, size: 0x8, addend: 0x0, symName: __ZNKSt3__116reverse_iteratorINS0_IPNS_6vectorImNS_9allocatorImEEEEEEEptB8ue170006Ev, symObjAddr: 0x3AB4, symBinAddr: 0x100005BE8, symSize: 0x24 }
  - { offsetInCU: 0x11094, offset: 0x11094, size: 0x8, addend: 0x0, symName: __ZNKSt3__116reverse_iteratorINS0_IPNS_6vectorImNS_9allocatorImEEEEEEEdeB8ue170006Ev, symObjAddr: 0x3AD8, symBinAddr: 0x100005C0C, symSize: 0x34 }
  - { offsetInCU: 0x110C7, offset: 0x110C7, size: 0x8, addend: 0x0, symName: __ZNSt3__116reverse_iteratorIPNS_6vectorImNS_9allocatorImEEEEEmmB8ue170006Ev, symObjAddr: 0x3B0C, symBinAddr: 0x100005C40, symSize: 0x20 }
  - { offsetInCU: 0x110EC, offset: 0x110EC, size: 0x8, addend: 0x0, symName: __ZNSt3__116reverse_iteratorINS0_IPNS_6vectorImNS_9allocatorImEEEEEEEC2B8ue170006ES6_, symObjAddr: 0x3B2C, symBinAddr: 0x100005C60, symSize: 0x2C }
  - { offsetInCU: 0x11123, offset: 0x11123, size: 0x8, addend: 0x0, symName: __ZNSt3__116reverse_iteratorIPNS_6vectorImNS_9allocatorImEEEEEC2B8ue170006ES5_, symObjAddr: 0x3B58, symBinAddr: 0x100005C8C, symSize: 0x28 }
  - { offsetInCU: 0x1115A, offset: 0x1115A, size: 0x8, addend: 0x0, symName: __ZNSt3__114__split_bufferINS_6vectorImNS_9allocatorImEEEERNS2_IS4_EEED2Ev, symObjAddr: 0x3B80, symBinAddr: 0x100005CB4, symSize: 0x8C }
  - { offsetInCU: 0x11185, offset: 0x11185, size: 0x8, addend: 0x0, symName: __ZNSt3__114__split_bufferINS_6vectorImNS_9allocatorImEEEERNS2_IS4_EEE5clearB8ue170006Ev, symObjAddr: 0x3C0C, symBinAddr: 0x100005D40, symSize: 0x28 }
  - { offsetInCU: 0x111AA, offset: 0x111AA, size: 0x8, addend: 0x0, symName: __ZNSt3__116allocator_traitsINS_9allocatorINS_6vectorImNS1_ImEEEEEEE10deallocateB8ue170006ERS5_PS4_m, symObjAddr: 0x3C34, symBinAddr: 0x100005D68, symSize: 0x34 }
  - { offsetInCU: 0x111EC, offset: 0x111EC, size: 0x8, addend: 0x0, symName: __ZNKSt3__114__split_bufferINS_6vectorImNS_9allocatorImEEEERNS2_IS4_EEE8capacityB8ue170006Ev, symObjAddr: 0x3C68, symBinAddr: 0x100005D9C, symSize: 0x40 }
  - { offsetInCU: 0x11211, offset: 0x11211, size: 0x8, addend: 0x0, symName: __ZNSt3__114__split_bufferINS_6vectorImNS_9allocatorImEEEERNS2_IS4_EEE17__destruct_at_endB8ue170006EPS4_, symObjAddr: 0x3CA8, symBinAddr: 0x100005DDC, symSize: 0x2C }
  - { offsetInCU: 0x11243, offset: 0x11243, size: 0x8, addend: 0x0, symName: __ZNSt3__114__split_bufferINS_6vectorImNS_9allocatorImEEEERNS2_IS4_EEE17__destruct_at_endB8ue170006EPS4_NS_17integral_constantIbLb0EEE, symObjAddr: 0x3CD4, symBinAddr: 0x100005E08, symSize: 0x80 }
  - { offsetInCU: 0x11282, offset: 0x11282, size: 0x8, addend: 0x0, symName: __ZNSt3__19allocatorINS_6vectorImNS0_ImEEEEE10deallocateB8ue170006EPS3_m, symObjAddr: 0x3D54, symBinAddr: 0x100005E88, symSize: 0x44 }
  - { offsetInCU: 0x112C3, offset: 0x112C3, size: 0x8, addend: 0x0, symName: __ZNKSt3__114__split_bufferINS_6vectorImNS_9allocatorImEEEERNS2_IS4_EEE9__end_capB8ue170006Ev, symObjAddr: 0x3D98, symBinAddr: 0x100005ECC, symSize: 0x28 }
  - { offsetInCU: 0x112E8, offset: 0x112E8, size: 0x8, addend: 0x0, symName: __ZNKSt3__117__compressed_pairIPNS_6vectorImNS_9allocatorImEEEERNS2_IS4_EEE5firstB8ue170006Ev, symObjAddr: 0x3DC0, symBinAddr: 0x100005EF4, symSize: 0x24 }
  - { offsetInCU: 0x1130D, offset: 0x1130D, size: 0x8, addend: 0x0, symName: __ZNSt3__16vectorINS0_ImNS_9allocatorImEEEENS1_IS3_EEE22__base_destruct_at_endB8ue170006EPS3_, symObjAddr: 0x3DE4, symBinAddr: 0x100005F18, symSize: 0x8C }
  - { offsetInCU: 0x11350, offset: 0x11350, size: 0x8, addend: 0x0, symName: __ZNKSt3__16vectorINS0_ImNS_9allocatorImEEEENS1_IS3_EEE17__annotate_shrinkB8ue170006Em, symObjAddr: 0x3E70, symBinAddr: 0x100005FA4, symSize: 0xD0 }
  - { offsetInCU: 0x11384, offset: 0x11384, size: 0x8, addend: 0x0, symName: __ZNKSt3__16vectorIbNS_9allocatorIbEEE4sizeB8ue170006Ev, symObjAddr: 0x3F40, symBinAddr: 0x100006074, symSize: 0x18 }
  - { offsetInCU: 0x113A9, offset: 0x113A9, size: 0x8, addend: 0x0, symName: __ZNSt3__114__bit_iteratorINS_6vectorIbNS_9allocatorIbEEEELb0ELm0EEC1B8ue170006Ev, symObjAddr: 0x3F58, symBinAddr: 0x10000608C, symSize: 0x2C }
  - { offsetInCU: 0x113D2, offset: 0x113D2, size: 0x8, addend: 0x0, symName: __ZNKSt3__16vectorIbNS_9allocatorIbEEE8capacityB8ue170006Ev, symObjAddr: 0x3F84, symBinAddr: 0x1000060B8, symSize: 0x2C }
  - { offsetInCU: 0x113F7, offset: 0x113F7, size: 0x8, addend: 0x0, symName: __ZNSt3__16vectorIbNS_9allocatorIbEEE3endB8ue170006Ev, symObjAddr: 0x3FB0, symBinAddr: 0x1000060E4, symSize: 0x30 }
  - { offsetInCU: 0x1141C, offset: 0x1141C, size: 0x8, addend: 0x0, symName: __ZNSt3__114__bit_iteratorINS_6vectorIbNS_9allocatorIbEEEELb0ELm0EEaSB8ue170006ERKS5_, symObjAddr: 0x3FE0, symBinAddr: 0x100006114, symSize: 0x30 }
  - { offsetInCU: 0x11450, offset: 0x11450, size: 0x8, addend: 0x0, symName: __ZNKSt3__16vectorIbNS_9allocatorIbEEE13get_allocatorB8ue170006Ev, symObjAddr: 0x4010, symBinAddr: 0x100006144, symSize: 0x30 }
  - { offsetInCU: 0x11475, offset: 0x11475, size: 0x8, addend: 0x0, symName: __ZNSt3__16vectorIbNS_9allocatorIbEEEC1B8ue170006ERKS2_, symObjAddr: 0x4040, symBinAddr: 0x100006174, symSize: 0x34 }
  - { offsetInCU: 0x114AE, offset: 0x114AE, size: 0x8, addend: 0x0, symName: __ZNSt3__16vectorIbNS_9allocatorIbEEE7reserveEm, symObjAddr: 0x4074, symBinAddr: 0x1000061A8, symSize: 0x118 }
  - { offsetInCU: 0x114F8, offset: 0x114F8, size: 0x8, addend: 0x0, symName: __ZNKSt3__16vectorIbNS_9allocatorIbEEE11__recommendB8ue170006Em, symObjAddr: 0x418C, symBinAddr: 0x1000062C0, symSize: 0xCC }
  - { offsetInCU: 0x1154C, offset: 0x1154C, size: 0x8, addend: 0x0, symName: __ZNKSt3__16vectorIbNS_9allocatorIbEEE6cbeginB8ue170006Ev, symObjAddr: 0x432C, symBinAddr: 0x100006460, symSize: 0x38 }
  - { offsetInCU: 0x11571, offset: 0x11571, size: 0x8, addend: 0x0, symName: __ZNKSt3__16vectorIbNS_9allocatorIbEEE4cendB8ue170006Ev, symObjAddr: 0x4364, symBinAddr: 0x100006498, symSize: 0x38 }
  - { offsetInCU: 0x11596, offset: 0x11596, size: 0x8, addend: 0x0, symName: __ZNSt3__16vectorIbNS_9allocatorIbEEE5beginB8ue170006Ev, symObjAddr: 0x439C, symBinAddr: 0x1000064D0, symSize: 0x30 }
  - { offsetInCU: 0x115BA, offset: 0x115BA, size: 0x8, addend: 0x0, symName: __ZNSt3__16vectorIbNS_9allocatorIbEEE4swapERS3_, symObjAddr: 0x43CC, symBinAddr: 0x100006500, symSize: 0x84 }
  - { offsetInCU: 0x115F0, offset: 0x115F0, size: 0x8, addend: 0x0, symName: __ZNSt3__16vectorIbNS_9allocatorIbEEED1B8ue170006Ev, symObjAddr: 0x4450, symBinAddr: 0x100006584, symSize: 0x2C }
  - { offsetInCU: 0x11619, offset: 0x11619, size: 0x8, addend: 0x0, symName: __ZNSt3__114__bit_iteratorINS_6vectorIbNS_9allocatorIbEEEELb0ELm0EEC1B8ue170006ERKS5_, symObjAddr: 0x4510, symBinAddr: 0x100006644, symSize: 0x34 }
  - { offsetInCU: 0x11651, offset: 0x11651, size: 0x8, addend: 0x0, symName: __ZNSt3__114__bit_iteratorINS_6vectorIbNS_9allocatorIbEEEELb0ELm0EEC2B8ue170006Ev, symObjAddr: 0x4544, symBinAddr: 0x100006678, symSize: 0x14 }
  - { offsetInCU: 0x1167A, offset: 0x1167A, size: 0x8, addend: 0x0, symName: __ZNSt3__16vectorIbNS_9allocatorIbEEE26__internal_cap_to_externalB8ue170006Em, symObjAddr: 0x4558, symBinAddr: 0x10000668C, symSize: 0x18 }
  - { offsetInCU: 0x1169E, offset: 0x1169E, size: 0x8, addend: 0x0, symName: __ZNKSt3__16vectorIbNS_9allocatorIbEEE5__capB8ue170006Ev, symObjAddr: 0x4570, symBinAddr: 0x1000066A4, symSize: 0x28 }
  - { offsetInCU: 0x116C3, offset: 0x116C3, size: 0x8, addend: 0x0, symName: __ZNKSt3__117__compressed_pairImNS_9allocatorImEEE5firstB8ue170006Ev, symObjAddr: 0x4598, symBinAddr: 0x1000066CC, symSize: 0x24 }
  - { offsetInCU: 0x116E8, offset: 0x116E8, size: 0x8, addend: 0x0, symName: __ZNKSt3__122__compressed_pair_elemImLi0ELb0EE5__getB8ue170006Ev, symObjAddr: 0x45BC, symBinAddr: 0x1000066F0, symSize: 0x14 }
  - { offsetInCU: 0x1170D, offset: 0x1170D, size: 0x8, addend: 0x0, symName: __ZNSt3__16vectorIbNS_9allocatorIbEEE11__make_iterB8ue170006Em, symObjAddr: 0x45D0, symBinAddr: 0x100006704, symSize: 0x64 }
  - { offsetInCU: 0x11741, offset: 0x11741, size: 0x8, addend: 0x0, symName: __ZNSt3__114__bit_iteratorINS_6vectorIbNS_9allocatorIbEEEELb0ELm0EEC1B8ue170006EPmj, symObjAddr: 0x4634, symBinAddr: 0x100006768, symSize: 0x3C }
  - { offsetInCU: 0x11788, offset: 0x11788, size: 0x8, addend: 0x0, symName: __ZNSt3__114__bit_iteratorINS_6vectorIbNS_9allocatorIbEEEELb0ELm0EEC2B8ue170006EPmj, symObjAddr: 0x4670, symBinAddr: 0x1000067A4, symSize: 0x2C }
  - { offsetInCU: 0x117CF, offset: 0x117CF, size: 0x8, addend: 0x0, symName: __ZNKSt3__16vectorIbNS_9allocatorIbEEE7__allocB8ue170006Ev, symObjAddr: 0x469C, symBinAddr: 0x1000067D0, symSize: 0x28 }
  - { offsetInCU: 0x117F4, offset: 0x117F4, size: 0x8, addend: 0x0, symName: __ZNSt3__19allocatorIbEC1B8ue170006ImEERKNS0_IT_EE, symObjAddr: 0x46C4, symBinAddr: 0x1000067F8, symSize: 0x34 }
  - { offsetInCU: 0x11830, offset: 0x11830, size: 0x8, addend: 0x0, symName: __ZNKSt3__117__compressed_pairImNS_9allocatorImEEE6secondB8ue170006Ev, symObjAddr: 0x46F8, symBinAddr: 0x10000682C, symSize: 0x24 }
  - { offsetInCU: 0x11855, offset: 0x11855, size: 0x8, addend: 0x0, symName: __ZNSt3__19allocatorIbEC2B8ue170006ImEERKNS0_IT_EE, symObjAddr: 0x471C, symBinAddr: 0x100006850, symSize: 0x30 }
  - { offsetInCU: 0x11891, offset: 0x11891, size: 0x8, addend: 0x0, symName: __ZNSt3__116__non_trivial_ifILb1ENS_9allocatorIbEEEC2B8ue170006Ev, symObjAddr: 0x474C, symBinAddr: 0x100006880, symSize: 0x14 }
  - { offsetInCU: 0x118BA, offset: 0x118BA, size: 0x8, addend: 0x0, symName: __ZNSt3__16vectorIbNS_9allocatorIbEEEC2B8ue170006ERKS2_, symObjAddr: 0x4760, symBinAddr: 0x100006894, symSize: 0x6C }
  - { offsetInCU: 0x118F9, offset: 0x118F9, size: 0x8, addend: 0x0, symName: __ZNSt3__19allocatorImEC1B8ue170006IbEERKNS0_IT_EE, symObjAddr: 0x47CC, symBinAddr: 0x100006900, symSize: 0x34 }
  - { offsetInCU: 0x1193A, offset: 0x1193A, size: 0x8, addend: 0x0, symName: __ZNSt3__117__compressed_pairImNS_9allocatorImEEEC1B8ue170006IiS2_EEOT_OT0_, symObjAddr: 0x4800, symBinAddr: 0x100006934, symSize: 0x3C }
  - { offsetInCU: 0x11991, offset: 0x11991, size: 0x8, addend: 0x0, symName: __ZNSt3__19allocatorImEC2B8ue170006IbEERKNS0_IT_EE, symObjAddr: 0x483C, symBinAddr: 0x100006970, symSize: 0x30 }
  - { offsetInCU: 0x119CD, offset: 0x119CD, size: 0x8, addend: 0x0, symName: __ZNSt3__117__compressed_pairImNS_9allocatorImEEEC2B8ue170006IiS2_EEOT_OT0_, symObjAddr: 0x486C, symBinAddr: 0x1000069A0, symSize: 0x44 }
  - { offsetInCU: 0x11A24, offset: 0x11A24, size: 0x8, addend: 0x0, symName: __ZNSt3__122__compressed_pair_elemImLi0ELb0EEC2B8ue170006IivEEOT_, symObjAddr: 0x48B0, symBinAddr: 0x1000069E4, symSize: 0x24 }
  - { offsetInCU: 0x11A64, offset: 0x11A64, size: 0x8, addend: 0x0, symName: __ZNKSt3__16vectorIbNS_9allocatorIbEEE8max_sizeEv, symObjAddr: 0x48D4, symBinAddr: 0x100006A08, symSize: 0x7C }
  - { offsetInCU: 0x11AA9, offset: 0x11AA9, size: 0x8, addend: 0x0, symName: __ZNKSt3__16vectorIbNS_9allocatorIbEEE20__throw_length_errorB8ue170006Ev, symObjAddr: 0x4950, symBinAddr: 0x100006A84, symSize: 0x1C }
  - { offsetInCU: 0x11ACE, offset: 0x11ACE, size: 0x8, addend: 0x0, symName: __ZNSt3__16vectorIbNS_9allocatorIbEEE11__vallocateB8ue170006Em, symObjAddr: 0x496C, symBinAddr: 0x100006AA0, symSize: 0xA0 }
  - { offsetInCU: 0x11B10, offset: 0x11B10, size: 0x8, addend: 0x0, symName: __ZNSt3__16vectorIbNS_9allocatorIbEEE18__construct_at_endINS_14__bit_iteratorIS3_Lb0ELm0EEES6_EEvT_T0_m, symObjAddr: 0x4A0C, symBinAddr: 0x100006B40, symSize: 0x12C }
  - { offsetInCU: 0x11B87, offset: 0x11B87, size: 0x8, addend: 0x0, symName: __ZNSt3__114numeric_limitsImE3maxB8ue170006Ev, symObjAddr: 0x4B38, symBinAddr: 0x100006C6C, symSize: 0x14 }
  - { offsetInCU: 0x11B9B, offset: 0x11B9B, size: 0x8, addend: 0x0, symName: __ZNSt3__123__libcpp_numeric_limitsImLb1EE3maxB8ue170006Ev, symObjAddr: 0x4B4C, symBinAddr: 0x100006C80, symSize: 0x8 }
  - { offsetInCU: 0x11BAF, offset: 0x11BAF, size: 0x8, addend: 0x0, symName: __ZNSt3__16vectorIbNS_9allocatorIbEEE7__allocB8ue170006Ev, symObjAddr: 0x4B54, symBinAddr: 0x100006C88, symSize: 0x28 }
  - { offsetInCU: 0x11BD4, offset: 0x11BD4, size: 0x8, addend: 0x0, symName: __ZNSt3__16vectorIbNS_9allocatorIbEEE26__external_cap_to_internalB8ue170006Em, symObjAddr: 0x4B7C, symBinAddr: 0x100006CB0, symSize: 0x24 }
  - { offsetInCU: 0x11BF8, offset: 0x11BF8, size: 0x8, addend: 0x0, symName: __ZNSt3__16vectorIbNS_9allocatorIbEEE5__capB8ue170006Ev, symObjAddr: 0x4BA0, symBinAddr: 0x100006CD4, symSize: 0x28 }
  - { offsetInCU: 0x11C1D, offset: 0x11C1D, size: 0x8, addend: 0x0, symName: __ZNSt3__117__compressed_pairImNS_9allocatorImEEE6secondB8ue170006Ev, symObjAddr: 0x4BC8, symBinAddr: 0x100006CFC, symSize: 0x24 }
  - { offsetInCU: 0x11C42, offset: 0x11C42, size: 0x8, addend: 0x0, symName: __ZNSt3__117__compressed_pairImNS_9allocatorImEEE5firstB8ue170006Ev, symObjAddr: 0x4BEC, symBinAddr: 0x100006D20, symSize: 0x24 }
  - { offsetInCU: 0x11C67, offset: 0x11C67, size: 0x8, addend: 0x0, symName: __ZNSt3__122__compressed_pair_elemImLi0ELb0EE5__getB8ue170006Ev, symObjAddr: 0x4C10, symBinAddr: 0x100006D44, symSize: 0x14 }
  - { offsetInCU: 0x11CAF, offset: 0x11CAF, size: 0x8, addend: 0x0, symName: __ZNKSt3__111__copy_loopINS_17_ClassicAlgPolicyEEclB8ue170006INS_14__bit_iteratorINS_6vectorIbNS_9allocatorIbEEEELb0ELm0EEES9_S9_EENS_4pairIT_T1_EESB_T0_SC_, symObjAddr: 0x4F1C, symBinAddr: 0x100007050, symSize: 0xB8 }
  - { offsetInCU: 0x11D1C, offset: 0x11D1C, size: 0x8, addend: 0x0, symName: __ZNKSt3__114__bit_iteratorINS_6vectorIbNS_9allocatorIbEEEELb0ELm0EEdeB8ue170006Ev, symObjAddr: 0x516C, symBinAddr: 0x1000072A0, symSize: 0x44 }
  - { offsetInCU: 0x11D41, offset: 0x11D41, size: 0x8, addend: 0x0, symName: __ZNSt3__115__bit_referenceINS_6vectorIbNS_9allocatorIbEEEELb1EEaSB8ue170006ERKS5_, symObjAddr: 0x51B0, symBinAddr: 0x1000072E4, symSize: 0x40 }
  - { offsetInCU: 0x11D74, offset: 0x11D74, size: 0x8, addend: 0x0, symName: __ZNSt3__114__bit_iteratorINS_6vectorIbNS_9allocatorIbEEEELb0ELm0EEppB8ue170006Ev, symObjAddr: 0x51F0, symBinAddr: 0x100007324, symSize: 0x5C }
  - { offsetInCU: 0x11D99, offset: 0x11D99, size: 0x8, addend: 0x0, symName: __ZNSt3__115__bit_referenceINS_6vectorIbNS_9allocatorIbEEEELb1EEC1B8ue170006EPmm, symObjAddr: 0x52B0, symBinAddr: 0x1000073E4, symSize: 0x3C }
  - { offsetInCU: 0x11DDE, offset: 0x11DDE, size: 0x8, addend: 0x0, symName: __ZNSt3__115__bit_referenceINS_6vectorIbNS_9allocatorIbEEEELb1EEC2B8ue170006EPmm, symObjAddr: 0x52EC, symBinAddr: 0x100007420, symSize: 0x2C }
  - { offsetInCU: 0x11E23, offset: 0x11E23, size: 0x8, addend: 0x0, symName: __ZNKSt3__115__bit_referenceINS_6vectorIbNS_9allocatorIbEEEELb1EEcvbB8ue170006Ev, symObjAddr: 0x5318, symBinAddr: 0x10000744C, symSize: 0x2C }
  - { offsetInCU: 0x11E48, offset: 0x11E48, size: 0x8, addend: 0x0, symName: __ZNSt3__118__unwrap_iter_implINS_14__bit_iteratorINS_6vectorIbNS_9allocatorIbEEEELb0ELm0EEELb0EE8__unwrapB8ue170006ES6_, symObjAddr: 0x5344, symBinAddr: 0x100007478, symSize: 0x38 }
  - { offsetInCU: 0x11E71, offset: 0x11E71, size: 0x8, addend: 0x0, symName: __ZNSt3__14pairINS_14__bit_iteratorINS_6vectorIbNS_9allocatorIbEEEELb0ELm0EEES6_EC1B8ue170006IS6_S6_LPv0EEEOT_OT0_, symObjAddr: 0x537C, symBinAddr: 0x1000074B0, symSize: 0x3C }
  - { offsetInCU: 0x11ECE, offset: 0x11ECE, size: 0x8, addend: 0x0, symName: __ZNSt3__14pairINS_14__bit_iteratorINS_6vectorIbNS_9allocatorIbEEEELb0ELm0EEES6_EC2B8ue170006IS6_S6_LPv0EEEOT_OT0_, symObjAddr: 0x53B8, symBinAddr: 0x1000074EC, symSize: 0x48 }
  - { offsetInCU: 0x11F2B, offset: 0x11F2B, size: 0x8, addend: 0x0, symName: __ZNSt3__118__unwrap_iter_implINS_14__bit_iteratorINS_6vectorIbNS_9allocatorIbEEEELb0ELm0EEELb0EE8__rewrapB8ue170006ES6_S6_, symObjAddr: 0x5400, symBinAddr: 0x100007534, symSize: 0x3C }
  - { offsetInCU: 0x11F5A, offset: 0x11F5A, size: 0x8, addend: 0x0, symName: __ZNSt3__16vectorIbNS_9allocatorIbEEE10__align_itB8ue170006Em, symObjAddr: 0x543C, symBinAddr: 0x100007570, symSize: 0x1C }
  - { offsetInCU: 0x11F88, offset: 0x11F88, size: 0x8, addend: 0x0, symName: __ZNKSt3__16__lessIvvEclB8ue170006IllEEbRKT_RKT0_, symObjAddr: 0x5D00, symBinAddr: 0x100007E34, symSize: 0x34 }
  - { offsetInCU: 0x11FF4, offset: 0x11FF4, size: 0x8, addend: 0x0, symName: __ZNKSt3__114__copy_trivialclB8ue170006IKmmLi0EEENS_4pairIPT_PT0_EES5_S5_S7_, symObjAddr: 0x5F10, symBinAddr: 0x100008044, symSize: 0x48 }
  - { offsetInCU: 0x12079, offset: 0x12079, size: 0x8, addend: 0x0, symName: __ZNSt3__14pairIPKmS2_EC1B8ue170006IS2_S2_LPv0EEEOT_OT0_, symObjAddr: 0x6018, symBinAddr: 0x10000814C, symSize: 0x3C }
  - { offsetInCU: 0x120D6, offset: 0x120D6, size: 0x8, addend: 0x0, symName: __ZNSt3__14pairIPKmS2_EC2B8ue170006IS2_S2_LPv0EEEOT_OT0_, symObjAddr: 0x6054, symBinAddr: 0x100008188, symSize: 0x34 }
  - { offsetInCU: 0x12133, offset: 0x12133, size: 0x8, addend: 0x0, symName: __ZNSt3__118__unwrap_iter_implIPKmLb1EE8__unwrapB8ue170006ES2_, symObjAddr: 0x6088, symBinAddr: 0x1000081BC, symSize: 0x24 }
  - { offsetInCU: 0x1215B, offset: 0x1215B, size: 0x8, addend: 0x0, symName: __ZNSt3__14pairIPKmPmEC1B8ue170006IRS2_S3_LPv0EEEOT_OT0_, symObjAddr: 0x61C8, symBinAddr: 0x1000082FC, symSize: 0x3C }
  - { offsetInCU: 0x121B8, offset: 0x121B8, size: 0x8, addend: 0x0, symName: __ZNSt3__14pairIPKmPmEC2B8ue170006IRS2_S3_LPv0EEEOT_OT0_, symObjAddr: 0x6204, symBinAddr: 0x100008338, symSize: 0x34 }
  - { offsetInCU: 0x12215, offset: 0x12215, size: 0x8, addend: 0x0, symName: __ZNSt3__14pairIPKmPmEC1B8ue170006IS2_S3_LPv0EEEOT_OT0_, symObjAddr: 0x6238, symBinAddr: 0x10000836C, symSize: 0x3C }
  - { offsetInCU: 0x12272, offset: 0x12272, size: 0x8, addend: 0x0, symName: __ZNSt3__14pairIPKmPmEC2B8ue170006IS2_S3_LPv0EEEOT_OT0_, symObjAddr: 0x6274, symBinAddr: 0x1000083A8, symSize: 0x34 }
  - { offsetInCU: 0x122CF, offset: 0x122CF, size: 0x8, addend: 0x0, symName: __ZNSt3__118__unwrap_iter_implIPKmLb1EE8__rewrapB8ue170006ES2_S2_, symObjAddr: 0x62E4, symBinAddr: 0x100008418, symSize: 0x50 }
  - { offsetInCU: 0x12300, offset: 0x12300, size: 0x8, addend: 0x0, symName: __ZNKSt3__16vectorIbNS_9allocatorIbEEE11__make_iterB8ue170006Em, symObjAddr: 0x6334, symBinAddr: 0x100008468, symSize: 0x5C }
  - { offsetInCU: 0x12334, offset: 0x12334, size: 0x8, addend: 0x0, symName: __ZNSt3__114__bit_iteratorINS_6vectorIbNS_9allocatorIbEEEELb1ELm0EEC1B8ue170006EPKmj, symObjAddr: 0x6390, symBinAddr: 0x1000084C4, symSize: 0x3C }
  - { offsetInCU: 0x1237B, offset: 0x1237B, size: 0x8, addend: 0x0, symName: __ZNSt3__114__bit_iteratorINS_6vectorIbNS_9allocatorIbEEEELb1ELm0EEC2B8ue170006EPKmj, symObjAddr: 0x63CC, symBinAddr: 0x100008500, symSize: 0x2C }
  - { offsetInCU: 0x123C2, offset: 0x123C2, size: 0x8, addend: 0x0, symName: __ZNSt3__16vectorIbNS_9allocatorIbEEED2B8ue170006Ev, symObjAddr: 0x6484, symBinAddr: 0x1000085B8, symSize: 0x44 }
  - { offsetInCU: 0x123EB, offset: 0x123EB, size: 0x8, addend: 0x0, symName: __ZNSt3__16vectorIbNS_9allocatorIbEEE16__destroy_vectorC1B8ue170006ERS3_, symObjAddr: 0x64C8, symBinAddr: 0x1000085FC, symSize: 0x34 }
  - { offsetInCU: 0x12423, offset: 0x12423, size: 0x8, addend: 0x0, symName: __ZNSt3__16vectorIbNS_9allocatorIbEEE16__destroy_vectorclB8ue170006Ev, symObjAddr: 0x64FC, symBinAddr: 0x100008630, symSize: 0x7C }
  - { offsetInCU: 0x12448, offset: 0x12448, size: 0x8, addend: 0x0, symName: __ZNSt3__16vectorIbNS_9allocatorIbEEE16__destroy_vectorC2B8ue170006ERS3_, symObjAddr: 0x6578, symBinAddr: 0x1000086AC, symSize: 0x20 }
  - { offsetInCU: 0x12480, offset: 0x12480, size: 0x8, addend: 0x0, symName: __ZNSt3__114__bit_iteratorINS_6vectorIbNS_9allocatorIbEEEELb0ELm0EEC2B8ue170006ERKS5_, symObjAddr: 0x69B8, symBinAddr: 0x100008AEC, symSize: 0x30 }
  - { offsetInCU: 0x124B8, offset: 0x124B8, size: 0x8, addend: 0x0, symName: __ZNSt3__16vectorIbNS_9allocatorIbEEE10__make_refB8ue170006Em, symObjAddr: 0x69E8, symBinAddr: 0x100008B1C, symSize: 0x60 }
  - { offsetInCU: 0x124EC, offset: 0x124EC, size: 0x8, addend: 0x0, symName: __ZNKSt3__16vectorIbNS_9allocatorIbEEE10__make_refB8ue170006Em, symObjAddr: 0x6A48, symBinAddr: 0x100008B7C, symSize: 0x60 }
  - { offsetInCU: 0x12520, offset: 0x12520, size: 0x8, addend: 0x0, symName: __ZNSt3__121__bit_const_referenceINS_6vectorIbNS_9allocatorIbEEEEEC1B8ue170006EPKmm, symObjAddr: 0x6AA8, symBinAddr: 0x100008BDC, symSize: 0x3C }
  - { offsetInCU: 0x12565, offset: 0x12565, size: 0x8, addend: 0x0, symName: __ZNSt3__121__bit_const_referenceINS_6vectorIbNS_9allocatorIbEEEEEC2B8ue170006EPKmm, symObjAddr: 0x6AE4, symBinAddr: 0x100008C18, symSize: 0x2C }
  - { offsetInCU: 0x125AA, offset: 0x125AA, size: 0x8, addend: 0x0, symName: __ZNSt3__111char_traitsIcE6lengthB8ue170006EPKc, symObjAddr: 0x6CFC, symBinAddr: 0x100008E30, symSize: 0x34 }
  - { offsetInCU: 0x125EB, offset: 0x125EB, size: 0x8, addend: 0x0, symName: __ZNKSt3__113basic_ostreamIcNS_11char_traitsIcEEE6sentrycvbB8ue170006Ev, symObjAddr: 0x6D30, symBinAddr: 0x100008E64, symSize: 0x1C }
  - { offsetInCU: 0x12610, offset: 0x12610, size: 0x8, addend: 0x0, symName: __ZNSt3__119ostreambuf_iteratorIcNS_11char_traitsIcEEEC1B8ue170006ERNS_13basic_ostreamIcS2_EE, symObjAddr: 0x6F8C, symBinAddr: 0x1000090C0, symSize: 0x34 }
  - { offsetInCU: 0x12647, offset: 0x12647, size: 0x8, addend: 0x0, symName: __ZNKSt3__18ios_base5flagsB8ue170006Ev, symObjAddr: 0x6FC0, symBinAddr: 0x1000090F4, symSize: 0x18 }
  - { offsetInCU: 0x1266D, offset: 0x1266D, size: 0x8, addend: 0x0, symName: __ZNKSt3__19basic_iosIcNS_11char_traitsIcEEE4fillB8ue170006Ev, symObjAddr: 0x6FD8, symBinAddr: 0x10000910C, symSize: 0x64 }
  - { offsetInCU: 0x12694, offset: 0x12694, size: 0x8, addend: 0x0, symName: __ZNKSt3__119ostreambuf_iteratorIcNS_11char_traitsIcEEE6failedB8ue170006Ev, symObjAddr: 0x703C, symBinAddr: 0x100009170, symSize: 0x24 }
  - { offsetInCU: 0x126B9, offset: 0x126B9, size: 0x8, addend: 0x0, symName: __ZNSt3__19basic_iosIcNS_11char_traitsIcEEE8setstateB8ue170006Ej, symObjAddr: 0x7060, symBinAddr: 0x100009194, symSize: 0x2C }
  - { offsetInCU: 0x126ED, offset: 0x126ED, size: 0x8, addend: 0x0, symName: __ZNKSt3__18ios_base5widthB8ue170006Ev, symObjAddr: 0x708C, symBinAddr: 0x1000091C0, symSize: 0x18 }
  - { offsetInCU: 0x12714, offset: 0x12714, size: 0x8, addend: 0x0, symName: __ZNSt3__115basic_streambufIcNS_11char_traitsIcEEE5sputnB8ue170006EPKcl, symObjAddr: 0x70A4, symBinAddr: 0x1000091D8, symSize: 0x3C }
  - { offsetInCU: 0x12755, offset: 0x12755, size: 0x8, addend: 0x0, symName: __ZNSt3__112basic_stringIcNS_11char_traitsIcEENS_9allocatorIcEEEC1B8ue170006Emc, symObjAddr: 0x70E0, symBinAddr: 0x100009214, symSize: 0x3C }
  - { offsetInCU: 0x1279C, offset: 0x1279C, size: 0x8, addend: 0x0, symName: __ZNKSt3__112basic_stringIcNS_11char_traitsIcEENS_9allocatorIcEEE4dataB8ue170006Ev, symObjAddr: 0x711C, symBinAddr: 0x100009250, symSize: 0x28 }
  - { offsetInCU: 0x127C1, offset: 0x127C1, size: 0x8, addend: 0x0, symName: __ZNSt3__18ios_base5widthB8ue170006El, symObjAddr: 0x7144, symBinAddr: 0x100009278, symSize: 0x2C }
  - { offsetInCU: 0x12806, offset: 0x12806, size: 0x8, addend: 0x0, symName: __ZNSt3__112basic_stringIcNS_11char_traitsIcEENS_9allocatorIcEEEC2B8ue170006Emc, symObjAddr: 0x7170, symBinAddr: 0x1000092A4, symSize: 0x4C }
  - { offsetInCU: 0x1284D, offset: 0x1284D, size: 0x8, addend: 0x0, symName: __ZNSt3__117__compressed_pairINS_12basic_stringIcNS_11char_traitsIcEENS_9allocatorIcEEE5__repES5_EC1B8ue170006INS_18__default_init_tagESA_EEOT_OT0_, symObjAddr: 0x71BC, symBinAddr: 0x1000092F0, symSize: 0x3C }
  - { offsetInCU: 0x128A4, offset: 0x128A4, size: 0x8, addend: 0x0, symName: __ZNSt3__117__compressed_pairINS_12basic_stringIcNS_11char_traitsIcEENS_9allocatorIcEEE5__repES5_EC2B8ue170006INS_18__default_init_tagESA_EEOT_OT0_, symObjAddr: 0x71F8, symBinAddr: 0x10000932C, symSize: 0x3C }
  - { offsetInCU: 0x128FB, offset: 0x128FB, size: 0x8, addend: 0x0, symName: __ZNSt3__122__compressed_pair_elemINS_12basic_stringIcNS_11char_traitsIcEENS_9allocatorIcEEE5__repELi0ELb0EEC2B8ue170006ENS_18__default_init_tagE, symObjAddr: 0x7234, symBinAddr: 0x100009368, symSize: 0x14 }
  - { offsetInCU: 0x1292E, offset: 0x1292E, size: 0x8, addend: 0x0, symName: __ZNSt3__122__compressed_pair_elemINS_9allocatorIcEELi1ELb1EEC2B8ue170006ENS_18__default_init_tagE, symObjAddr: 0x7248, symBinAddr: 0x10000937C, symSize: 0x2C }
  - { offsetInCU: 0x12961, offset: 0x12961, size: 0x8, addend: 0x0, symName: __ZNSt3__19allocatorIcEC2B8ue170006Ev, symObjAddr: 0x7274, symBinAddr: 0x1000093A8, symSize: 0x2C }
  - { offsetInCU: 0x1298A, offset: 0x1298A, size: 0x8, addend: 0x0, symName: __ZNSt3__116__non_trivial_ifILb1ENS_9allocatorIcEEEC2B8ue170006Ev, symObjAddr: 0x72A0, symBinAddr: 0x1000093D4, symSize: 0x14 }
  - { offsetInCU: 0x129B3, offset: 0x129B3, size: 0x8, addend: 0x0, symName: __ZNKSt3__112basic_stringIcNS_11char_traitsIcEENS_9allocatorIcEEE13__get_pointerB8ue170006Ev, symObjAddr: 0x72C8, symBinAddr: 0x1000093FC, symSize: 0x54 }
  - { offsetInCU: 0x129D8, offset: 0x129D8, size: 0x8, addend: 0x0, symName: __ZNKSt3__112basic_stringIcNS_11char_traitsIcEENS_9allocatorIcEEE9__is_longB8ue170006Ev, symObjAddr: 0x731C, symBinAddr: 0x100009450, symSize: 0x38 }
  - { offsetInCU: 0x129FD, offset: 0x129FD, size: 0x8, addend: 0x0, symName: __ZNKSt3__112basic_stringIcNS_11char_traitsIcEENS_9allocatorIcEEE18__get_long_pointerB8ue170006Ev, symObjAddr: 0x7354, symBinAddr: 0x100009488, symSize: 0x28 }
  - { offsetInCU: 0x12A22, offset: 0x12A22, size: 0x8, addend: 0x0, symName: __ZNKSt3__112basic_stringIcNS_11char_traitsIcEENS_9allocatorIcEEE19__get_short_pointerB8ue170006Ev, symObjAddr: 0x737C, symBinAddr: 0x1000094B0, symSize: 0x28 }
  - { offsetInCU: 0x12A47, offset: 0x12A47, size: 0x8, addend: 0x0, symName: __ZNKSt3__117__compressed_pairINS_12basic_stringIcNS_11char_traitsIcEENS_9allocatorIcEEE5__repES5_E5firstB8ue170006Ev, symObjAddr: 0x73A4, symBinAddr: 0x1000094D8, symSize: 0x24 }
  - { offsetInCU: 0x12A6C, offset: 0x12A6C, size: 0x8, addend: 0x0, symName: __ZNKSt3__122__compressed_pair_elemINS_12basic_stringIcNS_11char_traitsIcEENS_9allocatorIcEEE5__repELi0ELb0EE5__getB8ue170006Ev, symObjAddr: 0x73C8, symBinAddr: 0x1000094FC, symSize: 0x14 }
  - { offsetInCU: 0x12A91, offset: 0x12A91, size: 0x8, addend: 0x0, symName: __ZNSt3__114pointer_traitsIPKcE10pointer_toB8ue170006ERS1_, symObjAddr: 0x73DC, symBinAddr: 0x100009510, symSize: 0x14 }
  - { offsetInCU: 0x12AB4, offset: 0x12AB4, size: 0x8, addend: 0x0, symName: __ZNSt3__119ostreambuf_iteratorIcNS_11char_traitsIcEEEC2B8ue170006ERNS_13basic_ostreamIcS2_EE, symObjAddr: 0x73F0, symBinAddr: 0x100009524, symSize: 0x54 }
  - { offsetInCU: 0x12AEA, offset: 0x12AEA, size: 0x8, addend: 0x0, symName: __ZNKSt3__19basic_iosIcNS_11char_traitsIcEEE5rdbufB8ue170006Ev, symObjAddr: 0x7444, symBinAddr: 0x100009578, symSize: 0x24 }
  - { offsetInCU: 0x12B11, offset: 0x12B11, size: 0x8, addend: 0x0, symName: __ZNKSt3__18ios_base5rdbufB8ue170006Ev, symObjAddr: 0x7468, symBinAddr: 0x10000959C, symSize: 0x18 }
  - { offsetInCU: 0x12B36, offset: 0x12B36, size: 0x8, addend: 0x0, symName: __ZNSt3__111char_traitsIcE11eq_int_typeB8ue170006Eii, symObjAddr: 0x7480, symBinAddr: 0x1000095B4, symSize: 0x28 }
  - { offsetInCU: 0x12B69, offset: 0x12B69, size: 0x8, addend: 0x0, symName: __ZNSt3__111char_traitsIcE3eofB8ue170006Ev, symObjAddr: 0x74A8, symBinAddr: 0x1000095DC, symSize: 0x8 }
  - { offsetInCU: 0x12B7C, offset: 0x12B7C, size: 0x8, addend: 0x0, symName: __ZNKSt3__19basic_iosIcNS_11char_traitsIcEEE5widenB8ue170006Ec, symObjAddr: 0x74B0, symBinAddr: 0x1000095E4, symSize: 0x84 }
  - { offsetInCU: 0x12BE4, offset: 0x12BE4, size: 0x8, addend: 0x0, symName: __ZNKSt3__15ctypeIcE5widenB8ue170006Ec, symObjAddr: 0x7560, symBinAddr: 0x100009694, symSize: 0x38 }
  - { offsetInCU: 0x12C17, offset: 0x12C17, size: 0x8, addend: 0x0, symName: __ZNSt3__18ios_base8setstateB8ue170006Ej, symObjAddr: 0x7598, symBinAddr: 0x1000096CC, symSize: 0x34 }
  - { offsetInCU: 0x3DC4, offset: 0x16BA6, size: 0x8, addend: 0x0, symName: __ZNSt3__1lsB8ue170006IcNS_11char_traitsIcEENS_9allocatorIcEEEERNS_13basic_ostreamIT_T0_EES9_RKNS_12basic_stringIS6_S7_T1_EE, symObjAddr: 0x144, symBinAddr: 0x10000979C, symSize: 0x4C }
  - { offsetInCU: 0x7397, offset: 0x1A179, size: 0x8, addend: 0x0, symName: __Z7UI_initP2UI, symObjAddr: 0x0, symBinAddr: 0x100009724, symSize: 0x3C }
  - { offsetInCU: 0x73C0, offset: 0x1A1A2, size: 0x8, addend: 0x0, symName: __Z14UI_drawMessageP2UIRKNSt3__112basic_stringIcNS1_11char_traitsIcEENS1_9allocatorIcEEEE, symObjAddr: 0x108, symBinAddr: 0x100009760, symSize: 0x3C }
  - { offsetInCU: 0x73F7, offset: 0x1A1D9, size: 0x8, addend: 0x0, symName: __Z18UI_displaySolutionP2UIPK6Solver, symObjAddr: 0x190, symBinAddr: 0x1000097E8, symSize: 0x2C }
  - { offsetInCU: 0x744C, offset: 0x1A22E, size: 0x8, addend: 0x0, symName: __ZNKSt3__112basic_stringIcNS_11char_traitsIcEENS_9allocatorIcEEE4sizeB8ue170006Ev, symObjAddr: 0xCA8, symBinAddr: 0x100009814, symSize: 0x54 }
  - { offsetInCU: 0x7471, offset: 0x1A253, size: 0x8, addend: 0x0, symName: __ZNKSt3__112basic_stringIcNS_11char_traitsIcEENS_9allocatorIcEEE15__get_long_sizeB8ue170006Ev, symObjAddr: 0xCFC, symBinAddr: 0x100009868, symSize: 0x28 }
  - { offsetInCU: 0x7496, offset: 0x1A278, size: 0x8, addend: 0x0, symName: __ZNKSt3__112basic_stringIcNS_11char_traitsIcEENS_9allocatorIcEEE16__get_short_sizeB8ue170006Ev, symObjAddr: 0xD24, symBinAddr: 0x100009890, symSize: 0x34 }
  - { offsetInCU: 0x1B5A, offset: 0x1BF59, size: 0x8, addend: 0x0, symName: __ZNSt3__122__make_exception_guardB8ue170006INS_6vectorIiNS_9allocatorIiEEE16__destroy_vectorEEENS_28__exception_guard_exceptionsIT_EES7_, symObjAddr: 0x438, symBinAddr: 0x100009CFC, symSize: 0x40 }
  - { offsetInCU: 0x1B8F, offset: 0x1BF8E, size: 0x8, addend: 0x0, symName: __ZNSt3__119__allocate_at_leastB8ue170006INS_9allocatorIiEEEENS_19__allocation_resultINS_16allocator_traitsIT_E7pointerEEERS5_m, symObjAddr: 0x82C, symBinAddr: 0x10000A0F0, symSize: 0x40 }
  - { offsetInCU: 0x1BD2, offset: 0x1BFD1, size: 0x8, addend: 0x0, symName: __ZNSt3__112__to_addressB8ue170006IiEEPT_S2_, symObjAddr: 0xD90, symBinAddr: 0x10000A414, symSize: 0x14 }
  - { offsetInCU: 0x5159, offset: 0x1F558, size: 0x8, addend: 0x0, symName: __Z11Solver_initP6Solveri, symObjAddr: 0x0, symBinAddr: 0x1000098C4, symSize: 0x3C }
  - { offsetInCU: 0x5190, offset: 0x1F58F, size: 0x8, addend: 0x0, symName: __Z12Solver_solveP6Solver, symObjAddr: 0x3C, symBinAddr: 0x100009900, symSize: 0x230 }
  - { offsetInCU: 0x521C, offset: 0x1F61B, size: 0x8, addend: 0x0, symName: __ZNSt3__16vectorIiNS_9allocatorIiEEEC1EmRKi, symObjAddr: 0x26C, symBinAddr: 0x100009B30, symSize: 0x3C }
  - { offsetInCU: 0x5265, offset: 0x1F664, size: 0x8, addend: 0x0, symName: __ZNSt3__16vectorIiNS_9allocatorIiEEEixB8ue170006Em, symObjAddr: 0x2A8, symBinAddr: 0x100009B6C, symSize: 0x24 }
  - { offsetInCU: 0x529B, offset: 0x1F69A, size: 0x8, addend: 0x0, symName: __ZNSt3__16vectorIiNS_9allocatorIiEEED1B8ue170006Ev, symObjAddr: 0x2CC, symBinAddr: 0x100009B90, symSize: 0x2C }
  - { offsetInCU: 0x52C4, offset: 0x1F6C3, size: 0x8, addend: 0x0, symName: __Z22Solver_displaySolutionPK6Solver, symObjAddr: 0x2F8, symBinAddr: 0x100009BBC, symSize: 0x28 }
  - { offsetInCU: 0x52ED, offset: 0x1F6EC, size: 0x8, addend: 0x0, symName: __ZNSt3__16vectorIiNS_9allocatorIiEEEC2EmRKi, symObjAddr: 0x320, symBinAddr: 0x100009BE4, symSize: 0xDC }
  - { offsetInCU: 0x5355, offset: 0x1F754, size: 0x8, addend: 0x0, symName: __ZNSt3__117__compressed_pairIPiNS_9allocatorIiEEEC1B8ue170006IDnNS_18__default_init_tagEEEOT_OT0_, symObjAddr: 0x3FC, symBinAddr: 0x100009CC0, symSize: 0x3C }
  - { offsetInCU: 0x53AC, offset: 0x1F7AB, size: 0x8, addend: 0x0, symName: __ZNSt3__16vectorIiNS_9allocatorIiEEE16__destroy_vectorC1B8ue170006ERS3_, symObjAddr: 0x478, symBinAddr: 0x100009D3C, symSize: 0x34 }
  - { offsetInCU: 0x53E4, offset: 0x1F7E3, size: 0x8, addend: 0x0, symName: __ZNSt3__16vectorIiNS_9allocatorIiEEE11__vallocateB8ue170006Em, symObjAddr: 0x4AC, symBinAddr: 0x100009D70, symSize: 0xAC }
  - { offsetInCU: 0x5427, offset: 0x1F826, size: 0x8, addend: 0x0, symName: __ZNSt3__16vectorIiNS_9allocatorIiEEE18__construct_at_endEmRKi, symObjAddr: 0x558, symBinAddr: 0x100009E1C, symSize: 0xD0 }
  - { offsetInCU: 0x54A6, offset: 0x1F8A5, size: 0x8, addend: 0x0, symName: __ZNSt3__128__exception_guard_exceptionsINS_6vectorIiNS_9allocatorIiEEE16__destroy_vectorEE10__completeB8ue170006Ev, symObjAddr: 0x628, symBinAddr: 0x100009EEC, symSize: 0x1C }
  - { offsetInCU: 0x54CB, offset: 0x1F8CA, size: 0x8, addend: 0x0, symName: __ZNSt3__128__exception_guard_exceptionsINS_6vectorIiNS_9allocatorIiEEE16__destroy_vectorEED1B8ue170006Ev, symObjAddr: 0x644, symBinAddr: 0x100009F08, symSize: 0x2C }
  - { offsetInCU: 0x54F4, offset: 0x1F8F3, size: 0x8, addend: 0x0, symName: __ZNSt3__117__compressed_pairIPiNS_9allocatorIiEEEC2B8ue170006IDnNS_18__default_init_tagEEEOT_OT0_, symObjAddr: 0x670, symBinAddr: 0x100009F34, symSize: 0x40 }
  - { offsetInCU: 0x554B, offset: 0x1F94A, size: 0x8, addend: 0x0, symName: __ZNSt3__122__compressed_pair_elemIPiLi0ELb0EEC2B8ue170006IDnvEEOT_, symObjAddr: 0x6B0, symBinAddr: 0x100009F74, symSize: 0x1C }
  - { offsetInCU: 0x558C, offset: 0x1F98B, size: 0x8, addend: 0x0, symName: __ZNSt3__122__compressed_pair_elemINS_9allocatorIiEELi1ELb1EEC2B8ue170006ENS_18__default_init_tagE, symObjAddr: 0x6CC, symBinAddr: 0x100009F90, symSize: 0x2C }
  - { offsetInCU: 0x55BF, offset: 0x1F9BE, size: 0x8, addend: 0x0, symName: __ZNSt3__19allocatorIiEC2B8ue170006Ev, symObjAddr: 0x6F8, symBinAddr: 0x100009FBC, symSize: 0x2C }
  - { offsetInCU: 0x55E8, offset: 0x1F9E7, size: 0x8, addend: 0x0, symName: __ZNSt3__116__non_trivial_ifILb1ENS_9allocatorIiEEEC2B8ue170006Ev, symObjAddr: 0x724, symBinAddr: 0x100009FE8, symSize: 0x14 }
  - { offsetInCU: 0x5611, offset: 0x1FA10, size: 0x8, addend: 0x0, symName: __ZNSt3__128__exception_guard_exceptionsINS_6vectorIiNS_9allocatorIiEEE16__destroy_vectorEEC1B8ue170006ES5_, symObjAddr: 0x738, symBinAddr: 0x100009FFC, symSize: 0x34 }
  - { offsetInCU: 0x5648, offset: 0x1FA47, size: 0x8, addend: 0x0, symName: __ZNSt3__128__exception_guard_exceptionsINS_6vectorIiNS_9allocatorIiEEE16__destroy_vectorEEC2B8ue170006ES5_, symObjAddr: 0x76C, symBinAddr: 0x10000A030, symSize: 0x24 }
  - { offsetInCU: 0x567F, offset: 0x1FA7E, size: 0x8, addend: 0x0, symName: __ZNSt3__16vectorIiNS_9allocatorIiEEE16__destroy_vectorC2B8ue170006ERS3_, symObjAddr: 0x790, symBinAddr: 0x10000A054, symSize: 0x20 }
  - { offsetInCU: 0x56B7, offset: 0x1FAB6, size: 0x8, addend: 0x0, symName: __ZNKSt3__16vectorIiNS_9allocatorIiEEE8max_sizeEv, symObjAddr: 0x7B0, symBinAddr: 0x10000A074, symSize: 0x60 }
  - { offsetInCU: 0x56DD, offset: 0x1FADC, size: 0x8, addend: 0x0, symName: __ZNKSt3__16vectorIiNS_9allocatorIiEEE20__throw_length_errorB8ue170006Ev, symObjAddr: 0x810, symBinAddr: 0x10000A0D4, symSize: 0x1C }
  - { offsetInCU: 0x5702, offset: 0x1FB01, size: 0x8, addend: 0x0, symName: __ZNSt3__16vectorIiNS_9allocatorIiEEE7__allocB8ue170006Ev, symObjAddr: 0x86C, symBinAddr: 0x10000A130, symSize: 0x28 }
  - { offsetInCU: 0x5727, offset: 0x1FB26, size: 0x8, addend: 0x0, symName: __ZNSt3__16vectorIiNS_9allocatorIiEEE9__end_capB8ue170006Ev, symObjAddr: 0x894, symBinAddr: 0x10000A158, symSize: 0x28 }
  - { offsetInCU: 0x574C, offset: 0x1FB4B, size: 0x8, addend: 0x0, symName: __ZNKSt3__16vectorIiNS_9allocatorIiEEE14__annotate_newB8ue170006Em, symObjAddr: 0x8BC, symBinAddr: 0x10000A180, symSize: 0xAC }
  - { offsetInCU: 0x578A, offset: 0x1FB89, size: 0x8, addend: 0x0, symName: __ZNSt3__116allocator_traitsINS_9allocatorIiEEE8max_sizeB8ue170006IS2_vEEmRKS2_, symObjAddr: 0x994, symBinAddr: 0x10000A22C, symSize: 0x24 }
  - { offsetInCU: 0x57B8, offset: 0x1FBB7, size: 0x8, addend: 0x0, symName: __ZNKSt3__16vectorIiNS_9allocatorIiEEE7__allocB8ue170006Ev, symObjAddr: 0x9B8, symBinAddr: 0x10000A250, symSize: 0x28 }
  - { offsetInCU: 0x57DD, offset: 0x1FBDC, size: 0x8, addend: 0x0, symName: __ZNKSt3__19allocatorIiE8max_sizeB8ue170006Ev, symObjAddr: 0xA88, symBinAddr: 0x10000A278, symSize: 0x14 }
  - { offsetInCU: 0x5802, offset: 0x1FC01, size: 0x8, addend: 0x0, symName: __ZNKSt3__117__compressed_pairIPiNS_9allocatorIiEEE6secondB8ue170006Ev, symObjAddr: 0xA9C, symBinAddr: 0x10000A28C, symSize: 0x24 }
  - { offsetInCU: 0x5827, offset: 0x1FC26, size: 0x8, addend: 0x0, symName: __ZNKSt3__122__compressed_pair_elemINS_9allocatorIiEELi1ELb1EE5__getB8ue170006Ev, symObjAddr: 0xAC0, symBinAddr: 0x10000A2B0, symSize: 0x14 }
  - { offsetInCU: 0x584C, offset: 0x1FC4B, size: 0x8, addend: 0x0, symName: __ZNSt3__19allocatorIiE8allocateB8ue170006Em, symObjAddr: 0xBC0, symBinAddr: 0x10000A2C4, symSize: 0x58 }
  - { offsetInCU: 0x587F, offset: 0x1FC7E, size: 0x8, addend: 0x0, symName: __ZNSt3__117__compressed_pairIPiNS_9allocatorIiEEE6secondB8ue170006Ev, symObjAddr: 0xC98, symBinAddr: 0x10000A31C, symSize: 0x24 }
  - { offsetInCU: 0x58A4, offset: 0x1FCA3, size: 0x8, addend: 0x0, symName: __ZNSt3__122__compressed_pair_elemINS_9allocatorIiEELi1ELb1EE5__getB8ue170006Ev, symObjAddr: 0xCBC, symBinAddr: 0x10000A340, symSize: 0x14 }
  - { offsetInCU: 0x58C9, offset: 0x1FCC8, size: 0x8, addend: 0x0, symName: __ZNSt3__117__compressed_pairIPiNS_9allocatorIiEEE5firstB8ue170006Ev, symObjAddr: 0xCD0, symBinAddr: 0x10000A354, symSize: 0x24 }
  - { offsetInCU: 0x58EE, offset: 0x1FCED, size: 0x8, addend: 0x0, symName: __ZNSt3__122__compressed_pair_elemIPiLi0ELb0EE5__getB8ue170006Ev, symObjAddr: 0xCF4, symBinAddr: 0x10000A378, symSize: 0x14 }
  - { offsetInCU: 0x5913, offset: 0x1FD12, size: 0x8, addend: 0x0, symName: __ZNKSt3__16vectorIiNS_9allocatorIiEEE31__annotate_contiguous_containerB8ue170006EPKvS5_S5_S5_, symObjAddr: 0xD08, symBinAddr: 0x10000A38C, symSize: 0x20 }
  - { offsetInCU: 0x5964, offset: 0x1FD63, size: 0x8, addend: 0x0, symName: __ZNKSt3__16vectorIiNS_9allocatorIiEEE4dataB8ue170006Ev, symObjAddr: 0xD28, symBinAddr: 0x10000A3AC, symSize: 0x28 }
  - { offsetInCU: 0x5989, offset: 0x1FD88, size: 0x8, addend: 0x0, symName: __ZNKSt3__16vectorIiNS_9allocatorIiEEE8capacityB8ue170006Ev, symObjAddr: 0xD50, symBinAddr: 0x10000A3D4, symSize: 0x40 }
  - { offsetInCU: 0x59AE, offset: 0x1FDAD, size: 0x8, addend: 0x0, symName: __ZNKSt3__16vectorIiNS_9allocatorIiEEE9__end_capB8ue170006Ev, symObjAddr: 0xDA4, symBinAddr: 0x10000A428, symSize: 0x28 }
  - { offsetInCU: 0x59D3, offset: 0x1FDD2, size: 0x8, addend: 0x0, symName: __ZNKSt3__117__compressed_pairIPiNS_9allocatorIiEEE5firstB8ue170006Ev, symObjAddr: 0xDCC, symBinAddr: 0x10000A450, symSize: 0x24 }
  - { offsetInCU: 0x59F8, offset: 0x1FDF7, size: 0x8, addend: 0x0, symName: __ZNKSt3__122__compressed_pair_elemIPiLi0ELb0EE5__getB8ue170006Ev, symObjAddr: 0xDF0, symBinAddr: 0x10000A474, symSize: 0x14 }
  - { offsetInCU: 0x5A36, offset: 0x1FE35, size: 0x8, addend: 0x0, symName: __ZNSt3__16vectorIiNS_9allocatorIiEEE21_ConstructTransactionC1B8ue170006ERS3_m, symObjAddr: 0xE04, symBinAddr: 0x10000A488, symSize: 0x3C }
  - { offsetInCU: 0x5A7D, offset: 0x1FE7C, size: 0x8, addend: 0x0, symName: __ZNSt3__116allocator_traitsINS_9allocatorIiEEE9constructB8ue170006IiJRKiEvEEvRS2_PT_DpOT0_, symObjAddr: 0xE40, symBinAddr: 0x10000A4C4, symSize: 0x34 }
  - { offsetInCU: 0x5AD4, offset: 0x1FED3, size: 0x8, addend: 0x0, symName: __ZNSt3__16vectorIiNS_9allocatorIiEEE21_ConstructTransactionD1B8ue170006Ev, symObjAddr: 0xE74, symBinAddr: 0x10000A4F8, symSize: 0x2C }
  - { offsetInCU: 0x5AFD, offset: 0x1FEFC, size: 0x8, addend: 0x0, symName: __ZNSt3__16vectorIiNS_9allocatorIiEEE21_ConstructTransactionC2B8ue170006ERS3_m, symObjAddr: 0xEA0, symBinAddr: 0x10000A524, symSize: 0x44 }
  - { offsetInCU: 0x5B44, offset: 0x1FF43, size: 0x8, addend: 0x0, symName: __ZNSt3__19allocatorIiE9constructB8ue170006IiJRKiEEEvPT_DpOT0_, symObjAddr: 0xEE4, symBinAddr: 0x10000A568, symSize: 0x28 }
  - { offsetInCU: 0x5B99, offset: 0x1FF98, size: 0x8, addend: 0x0, symName: __ZNSt3__16vectorIiNS_9allocatorIiEEE21_ConstructTransactionD2B8ue170006Ev, symObjAddr: 0xF0C, symBinAddr: 0x10000A590, symSize: 0x20 }
  - { offsetInCU: 0x5BC2, offset: 0x1FFC1, size: 0x8, addend: 0x0, symName: __ZNSt3__128__exception_guard_exceptionsINS_6vectorIiNS_9allocatorIiEEE16__destroy_vectorEED2B8ue170006Ev, symObjAddr: 0xF2C, symBinAddr: 0x10000A5B0, symSize: 0x50 }
  - { offsetInCU: 0x5BEB, offset: 0x1FFEA, size: 0x8, addend: 0x0, symName: __ZNSt3__16vectorIiNS_9allocatorIiEEE16__destroy_vectorclB8ue170006Ev, symObjAddr: 0xF7C, symBinAddr: 0x10000A600, symSize: 0x90 }
  - { offsetInCU: 0x5C10, offset: 0x2000F, size: 0x8, addend: 0x0, symName: __ZNSt3__16vectorIiNS_9allocatorIiEEE7__clearB8ue170006Ev, symObjAddr: 0x100C, symBinAddr: 0x10000A690, symSize: 0x28 }
  - { offsetInCU: 0x5C35, offset: 0x20034, size: 0x8, addend: 0x0, symName: __ZNKSt3__16vectorIiNS_9allocatorIiEEE17__annotate_deleteB8ue170006Ev, symObjAddr: 0x1034, symBinAddr: 0x10000A6B8, symSize: 0xB8 }
  - { offsetInCU: 0x5C5A, offset: 0x20059, size: 0x8, addend: 0x0, symName: __ZNSt3__116allocator_traitsINS_9allocatorIiEEE10deallocateB8ue170006ERS2_Pim, symObjAddr: 0x10EC, symBinAddr: 0x10000A770, symSize: 0x34 }
  - { offsetInCU: 0x5C9C, offset: 0x2009B, size: 0x8, addend: 0x0, symName: __ZNSt3__16vectorIiNS_9allocatorIiEEE22__base_destruct_at_endB8ue170006EPi, symObjAddr: 0x1120, symBinAddr: 0x10000A7A4, symSize: 0x8C }
  - { offsetInCU: 0x5CDF, offset: 0x200DE, size: 0x8, addend: 0x0, symName: __ZNSt3__116allocator_traitsINS_9allocatorIiEEE7destroyB8ue170006IivEEvRS2_PT_, symObjAddr: 0x11AC, symBinAddr: 0x10000A830, symSize: 0x2C }
  - { offsetInCU: 0x5D1C, offset: 0x2011B, size: 0x8, addend: 0x0, symName: __ZNSt3__19allocatorIiE7destroyB8ue170006EPi, symObjAddr: 0x11D8, symBinAddr: 0x10000A85C, symSize: 0x14 }
  - { offsetInCU: 0x5D4F, offset: 0x2014E, size: 0x8, addend: 0x0, symName: __ZNKSt3__16vectorIiNS_9allocatorIiEEE4sizeB8ue170006Ev, symObjAddr: 0x11EC, symBinAddr: 0x10000A870, symSize: 0x28 }
  - { offsetInCU: 0x5D74, offset: 0x20173, size: 0x8, addend: 0x0, symName: __ZNSt3__19allocatorIiE10deallocateB8ue170006EPim, symObjAddr: 0x1214, symBinAddr: 0x10000A898, symSize: 0x40 }
  - { offsetInCU: 0x5DB5, offset: 0x201B4, size: 0x8, addend: 0x0, symName: __ZNSt3__16vectorIiNS_9allocatorIiEEED2B8ue170006Ev, symObjAddr: 0x12D0, symBinAddr: 0x10000A8D8, symSize: 0x40 }
  - { offsetInCU: 0x4E89, offset: 0x251F1, size: 0x8, addend: 0x0, symName: __ZNSt3__1plB8ue170006IcNS_11char_traitsIcEENS_9allocatorIcEEEENS_12basic_stringIT_T0_T1_EEOS9_PKS6_, symObjAddr: 0x2E8, symBinAddr: 0x10000AB34, symSize: 0x40 }
  - { offsetInCU: 0x4EE1, offset: 0x25249, size: 0x8, addend: 0x0, symName: __ZNSt3__1plB8ue170006IcNS_11char_traitsIcEENS_9allocatorIcEEEENS_12basic_stringIT_T0_T1_EEPKS6_OS9_, symObjAddr: 0x328, symBinAddr: 0x10000AB74, symSize: 0x44 }
  - { offsetInCU: 0x70CF, offset: 0x27437, size: 0x8, addend: 0x0, symName: _main, symObjAddr: 0x0, symBinAddr: 0x10000A918, symSize: 0x1F0 }
  - { offsetInCU: 0x71A8, offset: 0x27510, size: 0x8, addend: 0x0, symName: __ZN6SolverC1Ev, symObjAddr: 0x2BC, symBinAddr: 0x10000AB08, symSize: 0x2C }
  - { offsetInCU: 0x71D3, offset: 0x2753B, size: 0x8, addend: 0x0, symName: __ZN6SolverD1Ev, symObjAddr: 0x36C, symBinAddr: 0x10000ABB8, symSize: 0x2C }
  - { offsetInCU: 0x71FE, offset: 0x27566, size: 0x8, addend: 0x0, symName: __ZN6SolverC2Ev, symObjAddr: 0x398, symBinAddr: 0x10000ABE4, symSize: 0x30 }
  - { offsetInCU: 0x722E, offset: 0x27596, size: 0x8, addend: 0x0, symName: __ZN5BoardC1Ev, symObjAddr: 0x3C8, symBinAddr: 0x10000AC14, symSize: 0x2C }
  - { offsetInCU: 0x7259, offset: 0x275C1, size: 0x8, addend: 0x0, symName: __ZN5BoardC2Ev, symObjAddr: 0x3F4, symBinAddr: 0x10000AC40, symSize: 0x3C }
  - { offsetInCU: 0x7284, offset: 0x275EC, size: 0x8, addend: 0x0, symName: __ZNSt3__16vectorINS0_ImNS_9allocatorImEEEENS1_IS3_EEEC1B8ue170006Ev, symObjAddr: 0x430, symBinAddr: 0x10000AC7C, symSize: 0x2C }
  - { offsetInCU: 0x72AD, offset: 0x27615, size: 0x8, addend: 0x0, symName: __ZNSt3__16vectorIbNS_9allocatorIbEEEC1B8ue170006Ev, symObjAddr: 0x45C, symBinAddr: 0x10000ACA8, symSize: 0x2C }
  - { offsetInCU: 0x72D8, offset: 0x27640, size: 0x8, addend: 0x0, symName: __ZNSt3__16vectorINS0_ImNS_9allocatorImEEEENS1_IS3_EEEC2B8ue170006Ev, symObjAddr: 0x488, symBinAddr: 0x10000ACD4, symSize: 0x4C }
  - { offsetInCU: 0x730B, offset: 0x27673, size: 0x8, addend: 0x0, symName: __ZNSt3__117__compressed_pairIPNS_6vectorImNS_9allocatorImEEEENS2_IS4_EEEC1B8ue170006IDnNS_18__default_init_tagEEEOT_OT0_, symObjAddr: 0x4D4, symBinAddr: 0x10000AD20, symSize: 0x3C }
  - { offsetInCU: 0x7362, offset: 0x276CA, size: 0x8, addend: 0x0, symName: __ZNSt3__117__compressed_pairIPNS_6vectorImNS_9allocatorImEEEENS2_IS4_EEEC2B8ue170006IDnNS_18__default_init_tagEEEOT_OT0_, symObjAddr: 0x51C, symBinAddr: 0x10000AD5C, symSize: 0x40 }
  - { offsetInCU: 0x73B9, offset: 0x27721, size: 0x8, addend: 0x0, symName: __ZNSt3__122__compressed_pair_elemINS_9allocatorINS_6vectorImNS1_ImEEEEEELi1ELb1EEC2B8ue170006ENS_18__default_init_tagE, symObjAddr: 0x578, symBinAddr: 0x10000AD9C, symSize: 0x2C }
  - { offsetInCU: 0x73EC, offset: 0x27754, size: 0x8, addend: 0x0, symName: __ZNSt3__19allocatorINS_6vectorImNS0_ImEEEEEC2B8ue170006Ev, symObjAddr: 0x5A4, symBinAddr: 0x10000ADC8, symSize: 0x2C }
  - { offsetInCU: 0x7415, offset: 0x2777D, size: 0x8, addend: 0x0, symName: __ZNSt3__116__non_trivial_ifILb1ENS_9allocatorINS_6vectorImNS1_ImEEEEEEEC2B8ue170006Ev, symObjAddr: 0x5D0, symBinAddr: 0x10000ADF4, symSize: 0x14 }
  - { offsetInCU: 0x743E, offset: 0x277A6, size: 0x8, addend: 0x0, symName: __ZNSt3__16vectorIbNS_9allocatorIbEEEC2B8ue170006Ev, symObjAddr: 0x5E4, symBinAddr: 0x10000AE08, symSize: 0x4C }
  - { offsetInCU: 0x746E, offset: 0x277D6, size: 0x8, addend: 0x0, symName: __ZNSt3__117__compressed_pairImNS_9allocatorImEEEC1B8ue170006IiNS_18__default_init_tagEEEOT_OT0_, symObjAddr: 0x630, symBinAddr: 0x10000AE54, symSize: 0x3C }
  - { offsetInCU: 0x74C5, offset: 0x2782D, size: 0x8, addend: 0x0, symName: __ZNSt3__117__compressed_pairImNS_9allocatorImEEEC2B8ue170006IiNS_18__default_init_tagEEEOT_OT0_, symObjAddr: 0x66C, symBinAddr: 0x10000AE90, symSize: 0x40 }
  - { offsetInCU: 0x751C, offset: 0x27884, size: 0x8, addend: 0x0, symName: __ZN6SolverD2Ev, symObjAddr: 0x73C, symBinAddr: 0x10000AED0, symSize: 0x30 }
  - { offsetInCU: 0x7547, offset: 0x278AF, size: 0x8, addend: 0x0, symName: __ZN5BoardD1Ev, symObjAddr: 0x76C, symBinAddr: 0x10000AF00, symSize: 0x2C }
  - { offsetInCU: 0x7572, offset: 0x278DA, size: 0x8, addend: 0x0, symName: __ZN5BoardD2Ev, symObjAddr: 0x798, symBinAddr: 0x10000AF2C, symSize: 0x3C }
  - { offsetInCU: 0x759D, offset: 0x27905, size: 0x8, addend: 0x0, symName: __ZNSt3__16vectorINS0_ImNS_9allocatorImEEEENS1_IS3_EEED1B8ue170006Ev, symObjAddr: 0x800, symBinAddr: 0x10000AF68, symSize: 0x2C }
  - { offsetInCU: 0x75C6, offset: 0x2792E, size: 0x8, addend: 0x0, symName: __ZNSt3__16vectorINS0_ImNS_9allocatorImEEEENS1_IS3_EEED2B8ue170006Ev, symObjAddr: 0xAF0, symBinAddr: 0x10000AF94, symSize: 0x44 }
  - { offsetInCU: 0x75EF, offset: 0x27957, size: 0x8, addend: 0x0, symName: __ZNSt3__16vectorINS0_ImNS_9allocatorImEEEENS1_IS3_EEE16__destroy_vectorC1B8ue170006ERS5_, symObjAddr: 0xB34, symBinAddr: 0x10000AFD8, symSize: 0x34 }
  - { offsetInCU: 0x7627, offset: 0x2798F, size: 0x8, addend: 0x0, symName: __ZNSt3__16vectorINS0_ImNS_9allocatorImEEEENS1_IS3_EEE16__destroy_vectorclB8ue170006Ev, symObjAddr: 0xB68, symBinAddr: 0x10000B00C, symSize: 0x90 }
  - { offsetInCU: 0x764C, offset: 0x279B4, size: 0x8, addend: 0x0, symName: __ZNSt3__16vectorINS0_ImNS_9allocatorImEEEENS1_IS3_EEE16__destroy_vectorC2B8ue170006ERS5_, symObjAddr: 0xBF8, symBinAddr: 0x10000B09C, symSize: 0x20 }
  - { offsetInCU: 0x7684, offset: 0x279EC, size: 0x8, addend: 0x0, symName: __ZNSt3__16vectorINS0_ImNS_9allocatorImEEEENS1_IS3_EEE7__clearB8ue170006Ev, symObjAddr: 0xC18, symBinAddr: 0x10000B0BC, symSize: 0x28 }
  - { offsetInCU: 0x76A9, offset: 0x27A11, size: 0x8, addend: 0x0, symName: __ZNSt3__112basic_stringIcNS_11char_traitsIcEENS_9allocatorIcEEEC1B8ue170006EOS5_, symObjAddr: 0x1F40, symBinAddr: 0x10000B0E4, symSize: 0x34 }
  - { offsetInCU: 0x76E1, offset: 0x27A49, size: 0x8, addend: 0x0, symName: __ZNSt3__112basic_stringIcNS_11char_traitsIcEENS_9allocatorIcEEEC2B8ue170006EOS5_, symObjAddr: 0x1F74, symBinAddr: 0x10000B118, symSize: 0x50 }
  - { offsetInCU: 0x7719, offset: 0x27A81, size: 0x8, addend: 0x0, symName: __ZNSt3__112basic_stringIcNS_11char_traitsIcEENS_9allocatorIcEEE14__default_initB8ue170006Ev, symObjAddr: 0x1FC4, symBinAddr: 0x10000B168, symSize: 0x40 }
  - { offsetInCU: 0x773E, offset: 0x27AA6, size: 0x8, addend: 0x0, symName: __ZNSt3__117__compressed_pairINS_12basic_stringIcNS_11char_traitsIcEENS_9allocatorIcEEE5__repES5_E5firstB8ue170006Ev, symObjAddr: 0x2004, symBinAddr: 0x10000B1A8, symSize: 0x24 }
  - { offsetInCU: 0x7763, offset: 0x27ACB, size: 0x8, addend: 0x0, symName: __ZNSt3__122__compressed_pair_elemINS_12basic_stringIcNS_11char_traitsIcEENS_9allocatorIcEEE5__repELi0ELb0EE5__getB8ue170006Ev, symObjAddr: 0x2028, symBinAddr: 0x10000B1CC, symSize: 0x14 }
...
