---
triple:          'x86_64-apple-darwin'
binary-path:     Board_tests.exe
relocations:
  - { offsetInCU: 0x6F89, offset: 0x6F89, size: 0x8, addend: 0x0, symName: __ZNSt3__114__copy_alignedB8ue170006INS_6vectorIbNS_9allocatorIbEEEELb1EEENS_14__bit_iteratorIT_Lb0EXLi0EEEENS5_IS6_XT0_EXLi0EEEES8_S7_, symObjAddr: 0x4F40, symBinAddr: 0x100005C70, symSize: 0x260 }
  - { offsetInCU: 0x70B9, offset: 0x70B9, size: 0x8, addend: 0x0, symName: __ZNSt3__16copy_nB8ue170006IPKmmPmEENS_9enable_ifIXsr37__has_random_access_iterator_categoryIT_EE5valueET1_E4typeES5_T0_S6_, symObjAddr: 0x56E0, symBinAddr: 0x100006410, symSize: 0x40 }
  - { offsetInCU: 0x7160, offset: 0x7160, size: 0x8, addend: 0x0, symName: __ZNSt3__116__copy_unalignedB8ue170006INS_6vectorIbNS_9allocatorIbEEEELb1EEENS_14__bit_iteratorIT_Lb0EXLi0EEEENS5_IS6_XT0_EXLi0EEEES8_S7_, symObjAddr: 0x51A0, symBinAddr: 0x100005ED0, symSize: 0x4D0 }
  - { offsetInCU: 0x72DE, offset: 0x72DE, size: 0x8, addend: 0x0, symName: __ZNSt3__113__fill_n_trueB8ue170006INS_6vectorIbNS_9allocatorIbEEEEEEvNS_14__bit_iteratorIT_Lb0EXLi0EEEENS6_9size_typeE, symObjAddr: 0x5F50, symBinAddr: 0x100006C80, symSize: 0x140 }
  - { offsetInCU: 0x73A4, offset: 0x73A4, size: 0x8, addend: 0x0, symName: __ZNSt3__114__fill_n_falseB8ue170006INS_6vectorIbNS_9allocatorIbEEEEEEvNS_14__bit_iteratorIT_Lb0EXLi0EEEENS6_9size_typeE, symObjAddr: 0x6090, symBinAddr: 0x100006DC0, symSize: 0x140 }
  - { offsetInCU: 0x746A, offset: 0x746A, size: 0x8, addend: 0x0, symName: __ZNSt3__124__put_character_sequenceB8ue170006IcNS_11char_traitsIcEEEERNS_13basic_ostreamIT_T0_EES7_PKS4_m, symObjAddr: 0x6430, symBinAddr: 0x100007160, symSize: 0x1F0 }
  - { offsetInCU: 0x91CE, offset: 0x91CE, size: 0x8, addend: 0x0, symName: __ZNSt3__1lsB8ue170006INS_11char_traitsIcEEEERNS_13basic_ostreamIcT_EES6_PKc, symObjAddr: 0x860, symBinAddr: 0x100001590, symSize: 0x40 }
  - { offsetInCU: 0x9214, offset: 0x9214, size: 0x8, addend: 0x0, symName: __ZNSt3__14endlB8ue170006IcNS_11char_traitsIcEEEERNS_13basic_ostreamIT_T0_EES7_, symObjAddr: 0x8C0, symBinAddr: 0x1000015F0, symSize: 0x50 }
  - { offsetInCU: 0x9254, offset: 0x9254, size: 0x8, addend: 0x0, symName: __ZNSt3__122__make_exception_guardB8ue170006INS_6vectorImNS_9allocatorImEEE16__destroy_vectorEEENS_28__exception_guard_exceptionsIT_EES7_, symObjAddr: 0xA20, symBinAddr: 0x100001750, symSize: 0x40 }
  - { offsetInCU: 0x9289, offset: 0x9289, size: 0x8, addend: 0x0, symName: __ZNSt3__119__allocate_at_leastB8ue170006INS_9allocatorImEEEENS_19__allocation_resultINS_16allocator_traitsIT_E7pointerEEERS5_m, symObjAddr: 0xDD0, symBinAddr: 0x100001B00, symSize: 0x40 }
  - { offsetInCU: 0x92CC, offset: 0x92CC, size: 0x8, addend: 0x0, symName: __ZNSt3__13minB8ue170006ImEERKT_S3_S3_, symObjAddr: 0xF00, symBinAddr: 0x100001C30, symSize: 0x30 }
  - { offsetInCU: 0x9510, offset: 0x9510, size: 0x8, addend: 0x0, symName: __ZNSt3__13minB8ue170006ImNS_6__lessIvvEEEERKT_S5_S5_T0_, symObjAddr: 0xF90, symBinAddr: 0x100001CC0, symSize: 0x50 }
  - { offsetInCU: 0x95E0, offset: 0x95E0, size: 0x8, addend: 0x0, symName: __ZNSt3__120__throw_length_errorB8ue170006EPKc, symObjAddr: 0x1070, symBinAddr: 0x100001DA0, symSize: 0x70 }
  - { offsetInCU: 0x960A, offset: 0x960A, size: 0x8, addend: 0x0, symName: __ZNSt3__117__libcpp_allocateB8ue170006Emm, symObjAddr: 0x11E0, symBinAddr: 0x100001F10, symSize: 0x20 }
  - { offsetInCU: 0x9647, offset: 0x9647, size: 0x8, addend: 0x0, symName: __ZNSt3__121__libcpp_operator_newB8ue170006IJmEEEPvDpT_, symObjAddr: 0x1200, symBinAddr: 0x100001F30, symSize: 0x20 }
  - { offsetInCU: 0x9680, offset: 0x9680, size: 0x8, addend: 0x0, symName: __ZNSt3__112__to_addressB8ue170006ImEEPT_S2_, symObjAddr: 0x12F0, symBinAddr: 0x100002020, symSize: 0x10 }
  - { offsetInCU: 0x96B5, offset: 0x96B5, size: 0x8, addend: 0x0, symName: __ZNSt3__119__libcpp_deallocateB8ue170006EPvmm, symObjAddr: 0x1730, symBinAddr: 0x100002460, symSize: 0x30 }
  - { offsetInCU: 0x96FD, offset: 0x96FD, size: 0x8, addend: 0x0, symName: __ZNSt3__127__do_deallocate_handle_sizeB8ue170006IJEEEvPvmDpT_, symObjAddr: 0x1760, symBinAddr: 0x100002490, symSize: 0x20 }
  - { offsetInCU: 0x973B, offset: 0x973B, size: 0x8, addend: 0x0, symName: __ZNSt3__124__libcpp_operator_deleteB8ue170006IJPvEEEvDpT_, symObjAddr: 0x1780, symBinAddr: 0x1000024B0, symSize: 0x20 }
  - { offsetInCU: 0x9770, offset: 0x9770, size: 0x8, addend: 0x0, symName: __ZNSt3__112__to_addressB8ue170006INS_6vectorImNS_9allocatorImEEEEEEPT_S6_, symObjAddr: 0x1DD0, symBinAddr: 0x100002B00, symSize: 0x10 }
  - { offsetInCU: 0x97A5, offset: 0x97A5, size: 0x8, addend: 0x0, symName: __ZNSt3__130__uninitialized_allocator_copyB8ue170006INS_9allocatorImEEPmS3_S3_EET2_RT_T0_T1_S4_, symObjAddr: 0x2110, symBinAddr: 0x100002E40, symSize: 0x80 }
  - { offsetInCU: 0x9842, offset: 0x9842, size: 0x8, addend: 0x0, symName: __ZNSt3__114__unwrap_rangeB8ue170006IPmS1_EENS_4pairIT0_S3_EET_S5_, symObjAddr: 0x2190, symBinAddr: 0x100002EC0, symSize: 0x50 }
  - { offsetInCU: 0x988E, offset: 0x988E, size: 0x8, addend: 0x0, symName: __ZNSt3__135__uninitialized_allocator_copy_implB8ue170006INS_9allocatorImEEmmmLPv0EEEPT2_RT_PT0_S9_S5_, symObjAddr: 0x21E0, symBinAddr: 0x100002F10, symSize: 0x30 }
  - { offsetInCU: 0x990F, offset: 0x990F, size: 0x8, addend: 0x0, symName: __ZNSt3__113__unwrap_iterB8ue170006IPmNS_18__unwrap_iter_implIS1_Lb1EEELi0EEEDTclsrT0_8__unwrapclsr3stdE7declvalIT_EEEES5_, symObjAddr: 0x2210, symBinAddr: 0x100002F40, symSize: 0x20 }
  - { offsetInCU: 0x9953, offset: 0x9953, size: 0x8, addend: 0x0, symName: __ZNSt3__113__rewrap_iterB8ue170006IPmS1_NS_18__unwrap_iter_implIS1_Lb1EEEEET_S4_T0_, symObjAddr: 0x2230, symBinAddr: 0x100002F60, symSize: 0x40 }
  - { offsetInCU: 0x99A8, offset: 0x99A8, size: 0x8, addend: 0x0, symName: __ZNSt3__19make_pairB8ue170006IPmS1_EENS_4pairINS_18__unwrap_ref_decayIT_E4typeENS3_IT0_E4typeEEEOS4_OS7_, symObjAddr: 0x2270, symBinAddr: 0x100002FA0, symSize: 0x30 }
  - { offsetInCU: 0x9AFA, offset: 0x9AFA, size: 0x8, addend: 0x0, symName: __ZNSt3__14copyB8ue170006IPmS1_EET0_T_S3_S2_, symObjAddr: 0x2300, symBinAddr: 0x100003030, symSize: 0x40 }
  - { offsetInCU: 0x9B54, offset: 0x9B54, size: 0x8, addend: 0x0, symName: __ZNSt3__16__copyB8ue170006INS_17_ClassicAlgPolicyEPmS2_S2_EENS_4pairIT0_T2_EES4_T1_S5_, symObjAddr: 0x2340, symBinAddr: 0x100003070, symSize: 0x40 }
  - { offsetInCU: 0x9BC0, offset: 0x9BC0, size: 0x8, addend: 0x0, symName: __ZNSt3__123__dispatch_copy_or_moveB8ue170006INS_17_ClassicAlgPolicyENS_11__copy_loopIS1_EENS_14__copy_trivialEPmS5_S5_EENS_4pairIT2_T4_EES7_T3_S8_, symObjAddr: 0x2380, symBinAddr: 0x1000030B0, symSize: 0x40 }
  - { offsetInCU: 0x9C3E, offset: 0x9C3E, size: 0x8, addend: 0x0, symName: __ZNSt3__121__unwrap_and_dispatchB8ue170006INS_10__overloadINS_11__copy_loopINS_17_ClassicAlgPolicyEEENS_14__copy_trivialEEEPmS7_S7_Li0EEENS_4pairIT0_T2_EES9_T1_SA_, symObjAddr: 0x23C0, symBinAddr: 0x1000030F0, symSize: 0xB0 }
  - { offsetInCU: 0x9D4F, offset: 0x9D4F, size: 0x8, addend: 0x0, symName: __ZNSt3__114__rewrap_rangeB8ue170006IPmS1_EET_S2_T0_, symObjAddr: 0x24B0, symBinAddr: 0x1000031E0, symSize: 0x30 }
  - { offsetInCU: 0x9D9B, offset: 0x9D9B, size: 0x8, addend: 0x0, symName: __ZNSt3__119__copy_trivial_implB8ue170006ImmEENS_4pairIPT_PT0_EES3_S3_S5_, symObjAddr: 0x24E0, symBinAddr: 0x100003210, symSize: 0x70 }
  - { offsetInCU: 0x9E03, offset: 0x9E03, size: 0x8, addend: 0x0, symName: __ZNSt3__119__constexpr_memmoveB8ue170006ImmLi0EEEPT_S2_PT0_NS_15__element_countE, symObjAddr: 0x2550, symBinAddr: 0x100003280, symSize: 0x50 }
  - { offsetInCU: 0x9E71, offset: 0x9E71, size: 0x8, addend: 0x0, symName: __ZNSt3__19make_pairB8ue170006IRPmS1_EENS_4pairINS_18__unwrap_ref_decayIT_E4typeENS4_IT0_E4typeEEEOS5_OS8_, symObjAddr: 0x25A0, symBinAddr: 0x1000032D0, symSize: 0x30 }
  - { offsetInCU: 0x9F13, offset: 0x9F13, size: 0x8, addend: 0x0, symName: __ZNSt3__13maxB8ue170006ImEERKT_S3_S3_, symObjAddr: 0x27B0, symBinAddr: 0x1000034E0, symSize: 0x30 }
  - { offsetInCU: 0x9F56, offset: 0x9F56, size: 0x8, addend: 0x0, symName: __ZNSt3__13maxB8ue170006ImNS_6__lessIvvEEEERKT_S5_S5_T0_, symObjAddr: 0x28C0, symBinAddr: 0x1000035F0, symSize: 0x50 }
  - { offsetInCU: 0x9FB0, offset: 0x9FB0, size: 0x8, addend: 0x0, symName: __ZNSt3__119__allocate_at_leastB8ue170006INS_9allocatorINS_6vectorImNS1_ImEEEEEEEENS_19__allocation_resultINS_16allocator_traitsIT_E7pointerEEERS8_m, symObjAddr: 0x2A00, symBinAddr: 0x100003730, symSize: 0x40 }
  - { offsetInCU: 0x9FF3, offset: 0x9FF3, size: 0x8, addend: 0x0, symName: __ZNSt3__142__uninitialized_allocator_move_if_noexceptB8ue170006INS_9allocatorINS_6vectorImNS1_ImEEEEEENS_16reverse_iteratorIPS4_EES8_S8_EET2_RT_T0_T1_S9_, symObjAddr: 0x2D10, symBinAddr: 0x100003A40, symSize: 0x180 }
  - { offsetInCU: 0xA092, offset: 0xA092, size: 0x8, addend: 0x0, symName: __ZNSt3__14swapB8ue170006IPNS_6vectorImNS_9allocatorImEEEEEENS_9enable_ifIXaasr21is_move_constructibleIT_EE5valuesr18is_move_assignableIS7_EE5valueEvE4typeERS7_SA_, symObjAddr: 0x2EE0, symBinAddr: 0x100003C10, symSize: 0x40 }
  - { offsetInCU: 0xA0E3, offset: 0xA0E3, size: 0x8, addend: 0x0, symName: __ZNSt3__122__make_exception_guardB8ue170006INS_29_AllocatorDestroyRangeReverseINS_9allocatorINS_6vectorImNS2_ImEEEEEENS_16reverse_iteratorIPS5_EEEEEENS_28__exception_guard_exceptionsIT_EESC_, symObjAddr: 0x3000, symBinAddr: 0x100003D30, symSize: 0x60 }
  - { offsetInCU: 0xA118, offset: 0xA118, size: 0x8, addend: 0x0, symName: __ZNSt3__1neB8ue170006IPNS_6vectorImNS_9allocatorImEEEES5_EEbRKNS_16reverse_iteratorIT_EERKNS6_IT0_EE, symObjAddr: 0x30A0, symBinAddr: 0x100003DD0, symSize: 0x40 }
  - { offsetInCU: 0xA164, offset: 0xA164, size: 0x8, addend: 0x0, symName: __ZNSt3__112__to_addressB8ue170006INS_16reverse_iteratorIPNS_6vectorImNS_9allocatorImEEEEEEvEEu7__decayIDTclsr19__to_address_helperIT_EE6__callclsr3stdE7declvalIRKS8_EEEEESA_, symObjAddr: 0x3110, symBinAddr: 0x100003E40, symSize: 0x20 }
  - { offsetInCU: 0xA1C3, offset: 0xA1C3, size: 0x8, addend: 0x0, symName: __ZNSt3__119__allocator_destroyB8ue170006INS_9allocatorINS_6vectorImNS1_ImEEEEEENS_16reverse_iteratorINS6_IPS4_EEEES9_EEvRT_T0_T1_, symObjAddr: 0x3530, symBinAddr: 0x100004260, symSize: 0x70 }
  - { offsetInCU: 0xA226, offset: 0xA226, size: 0x8, addend: 0x0, symName: __ZNSt3__1neB8ue170006INS_16reverse_iteratorIPNS_6vectorImNS_9allocatorImEEEEEES7_EEbRKNS1_IT_EERKNS1_IT0_EE, symObjAddr: 0x35D0, symBinAddr: 0x100004300, symSize: 0x50 }
  - { offsetInCU: 0xA272, offset: 0xA272, size: 0x8, addend: 0x0, symName: __ZNSt3__112__to_addressB8ue170006INS_16reverse_iteratorINS1_IPNS_6vectorImNS_9allocatorImEEEEEEEEvEEu7__decayIDTclsr19__to_address_helperIT_EE6__callclsr3stdE7declvalIRKS9_EEEEESB_, symObjAddr: 0x3650, symBinAddr: 0x100004380, symSize: 0x20 }
  - { offsetInCU: 0xA2D1, offset: 0xA2D1, size: 0x8, addend: 0x0, symName: __ZNSt3__14copyB8ue170006INS_6vectorIbNS_9allocatorIbEEEELb1EEENS_14__bit_iteratorIT_Lb0EXLi0EEEENS5_IS6_XT0_EXLi0EEEES8_S7_, symObjAddr: 0x3E70, symBinAddr: 0x100004BA0, symSize: 0x100 }
  - { offsetInCU: 0xA331, offset: 0xA331, size: 0x8, addend: 0x0, symName: __ZNSt3__16fill_nB8ue170006INS_6vectorIbNS_9allocatorIbEEEEEEvNS_14__bit_iteratorIT_Lb0EXLi0EEEENS6_9size_typeEb, symObjAddr: 0x40A0, symBinAddr: 0x100004DD0, symSize: 0x80 }
  - { offsetInCU: 0xA585, offset: 0xA585, size: 0x8, addend: 0x0, symName: __ZNSt3__16__copyB8ue170006INS_17_ClassicAlgPolicyENS_14__bit_iteratorINS_6vectorIbNS_9allocatorIbEEEELb0ELm0EEES7_S7_EENS_4pairIT0_T2_EES9_T1_SA_, symObjAddr: 0x4780, symBinAddr: 0x1000054B0, symSize: 0x70 }
  - { offsetInCU: 0xA5F4, offset: 0xA5F4, size: 0x8, addend: 0x0, symName: __ZNSt3__123__dispatch_copy_or_moveB8ue170006INS_17_ClassicAlgPolicyENS_11__copy_loopIS1_EENS_14__copy_trivialENS_14__bit_iteratorINS_6vectorIbNS_9allocatorIbEEEELb0ELm0EEESA_SA_EENS_4pairIT2_T4_EESC_T3_SD_, symObjAddr: 0x47F0, symBinAddr: 0x100005520, symSize: 0x70 }
  - { offsetInCU: 0xA675, offset: 0xA675, size: 0x8, addend: 0x0, symName: __ZNSt3__121__unwrap_and_dispatchB8ue170006INS_10__overloadINS_11__copy_loopINS_17_ClassicAlgPolicyEEENS_14__copy_trivialEEENS_14__bit_iteratorINS_6vectorIbNS_9allocatorIbEEEELb0ELm0EEESC_SC_Li0EEENS_4pairIT0_T2_EESE_T1_SF_, symObjAddr: 0x4860, symBinAddr: 0x100005590, symSize: 0x190 }
  - { offsetInCU: 0xA707, offset: 0xA707, size: 0x8, addend: 0x0, symName: __ZNSt3__114__unwrap_rangeB8ue170006INS_14__bit_iteratorINS_6vectorIbNS_9allocatorIbEEEELb0ELm0EEES6_EENS_4pairIT0_S8_EET_SA_, symObjAddr: 0x49F0, symBinAddr: 0x100005720, symSize: 0x70 }
  - { offsetInCU: 0xA884, offset: 0xA884, size: 0x8, addend: 0x0, symName: __ZNSt3__113__unwrap_iterB8ue170006INS_14__bit_iteratorINS_6vectorIbNS_9allocatorIbEEEELb0ELm0EEENS_18__unwrap_iter_implIS6_Lb0EEELi0EEEDTclsrT0_8__unwrapclsr3stdE7declvalIT_EEEESA_, symObjAddr: 0x4B10, symBinAddr: 0x100005840, symSize: 0x40 }
  - { offsetInCU: 0xA8C9, offset: 0xA8C9, size: 0x8, addend: 0x0, symName: __ZNSt3__19make_pairB8ue170006INS_14__bit_iteratorINS_6vectorIbNS_9allocatorIbEEEELb0ELm0EEES6_EENS_4pairINS_18__unwrap_ref_decayIT_E4typeENS8_IT0_E4typeEEEOS9_OSC_, symObjAddr: 0x4B50, symBinAddr: 0x100005880, symSize: 0x40 }
  - { offsetInCU: 0xA918, offset: 0xA918, size: 0x8, addend: 0x0, symName: __ZNSt3__114__rewrap_rangeB8ue170006INS_14__bit_iteratorINS_6vectorIbNS_9allocatorIbEEEELb0ELm0EEES6_EET_S7_T0_, symObjAddr: 0x4B90, symBinAddr: 0x1000058C0, symSize: 0x60 }
  - { offsetInCU: 0xA966, offset: 0xA966, size: 0x8, addend: 0x0, symName: __ZNSt3__113__rewrap_iterB8ue170006INS_14__bit_iteratorINS_6vectorIbNS_9allocatorIbEEEELb0ELm0EEES6_NS_18__unwrap_iter_implIS6_Lb0EEEEET_S9_T0_, symObjAddr: 0x4BF0, symBinAddr: 0x100005920, symSize: 0x70 }
  - { offsetInCU: 0xA9BD, offset: 0xA9BD, size: 0x8, addend: 0x0, symName: __ZNSt3__1neB8ue170006ERKNS_14__bit_iteratorINS_6vectorIbNS_9allocatorIbEEEELb0ELm0EEES7_, symObjAddr: 0x4C60, symBinAddr: 0x100005990, symSize: 0x30 }
  - { offsetInCU: 0xA9FA, offset: 0xA9FA, size: 0x8, addend: 0x0, symName: __ZNSt3__1eqB8ue170006ERKNS_14__bit_iteratorINS_6vectorIbNS_9allocatorIbEEEELb0ELm0EEES7_, symObjAddr: 0x4D60, symBinAddr: 0x100005A90, symSize: 0x50 }
  - { offsetInCU: 0xAA7F, offset: 0xAA7F, size: 0x8, addend: 0x0, symName: __ZNSt3__1miB8ue170006ERKNS_14__bit_iteratorINS_6vectorIbNS_9allocatorIbEEEELb1ELm0EEES7_, symObjAddr: 0x5670, symBinAddr: 0x1000063A0, symSize: 0x40 }
  - { offsetInCU: 0xAABC, offset: 0xAABC, size: 0x8, addend: 0x0, symName: __ZNSt3__13minB8ue170006IlEERKT_S3_S3_, symObjAddr: 0x56B0, symBinAddr: 0x1000063E0, symSize: 0x30 }
  - { offsetInCU: 0xAAFF, offset: 0xAAFF, size: 0x8, addend: 0x0, symName: __ZNSt3__112__to_addressB8ue170006IKmEEPT_S3_, symObjAddr: 0x5720, symBinAddr: 0x100006450, symSize: 0x10 }
  - { offsetInCU: 0xAB34, offset: 0xAB34, size: 0x8, addend: 0x0, symName: __ZNSt3__13minB8ue170006IlNS_6__lessIvvEEEERKT_S5_S5_T0_, symObjAddr: 0x5730, symBinAddr: 0x100006460, symSize: 0x50 }
  - { offsetInCU: 0xAB8E, offset: 0xAB8E, size: 0x8, addend: 0x0, symName: __ZNSt3__14copyB8ue170006IPKmPmEET0_T_S5_S4_, symObjAddr: 0x57B0, symBinAddr: 0x1000064E0, symSize: 0x40 }
  - { offsetInCU: 0xABE8, offset: 0xABE8, size: 0x8, addend: 0x0, symName: __ZNSt3__16__copyB8ue170006INS_17_ClassicAlgPolicyEPKmS3_PmEENS_4pairIT0_T2_EES6_T1_S7_, symObjAddr: 0x57F0, symBinAddr: 0x100006520, symSize: 0x40 }
  - { offsetInCU: 0xAC54, offset: 0xAC54, size: 0x8, addend: 0x0, symName: __ZNSt3__123__dispatch_copy_or_moveB8ue170006INS_17_ClassicAlgPolicyENS_11__copy_loopIS1_EENS_14__copy_trivialEPKmS6_PmEENS_4pairIT2_T4_EES9_T3_SA_, symObjAddr: 0x5830, symBinAddr: 0x100006560, symSize: 0x40 }
  - { offsetInCU: 0xACD2, offset: 0xACD2, size: 0x8, addend: 0x0, symName: __ZNSt3__121__unwrap_and_dispatchB8ue170006INS_10__overloadINS_11__copy_loopINS_17_ClassicAlgPolicyEEENS_14__copy_trivialEEEPKmS8_PmLi0EEENS_4pairIT0_T2_EESB_T1_SC_, symObjAddr: 0x5870, symBinAddr: 0x1000065A0, symSize: 0xB0 }
  - { offsetInCU: 0xAD61, offset: 0xAD61, size: 0x8, addend: 0x0, symName: __ZNSt3__114__unwrap_rangeB8ue170006IPKmS2_EENS_4pairIT0_S4_EET_S6_, symObjAddr: 0x5920, symBinAddr: 0x100006650, symSize: 0x50 }
  - { offsetInCU: 0xAEB0, offset: 0xAEB0, size: 0x8, addend: 0x0, symName: __ZNSt3__19make_pairB8ue170006IPKmPmEENS_4pairINS_18__unwrap_ref_decayIT_E4typeENS5_IT0_E4typeEEEOS6_OS9_, symObjAddr: 0x59B0, symBinAddr: 0x1000066E0, symSize: 0x30 }
  - { offsetInCU: 0xAEFF, offset: 0xAEFF, size: 0x8, addend: 0x0, symName: __ZNSt3__114__rewrap_rangeB8ue170006IPKmS2_EET_S3_T0_, symObjAddr: 0x59E0, symBinAddr: 0x100006710, symSize: 0x30 }
  - { offsetInCU: 0xAF4B, offset: 0xAF4B, size: 0x8, addend: 0x0, symName: __ZNSt3__19make_pairB8ue170006IPKmS2_EENS_4pairINS_18__unwrap_ref_decayIT_E4typeENS4_IT0_E4typeEEEOS5_OS8_, symObjAddr: 0x5A10, symBinAddr: 0x100006740, symSize: 0x30 }
  - { offsetInCU: 0xAF9A, offset: 0xAF9A, size: 0x8, addend: 0x0, symName: __ZNSt3__113__unwrap_iterB8ue170006IPKmNS_18__unwrap_iter_implIS2_Lb1EEELi0EEEDTclsrT0_8__unwrapclsr3stdE7declvalIT_EEEES6_, symObjAddr: 0x5A40, symBinAddr: 0x100006770, symSize: 0x20 }
  - { offsetInCU: 0xB105, offset: 0xB105, size: 0x8, addend: 0x0, symName: __ZNSt3__119__copy_trivial_implB8ue170006IKmmEENS_4pairIPT_PT0_EES4_S4_S6_, symObjAddr: 0x5AE0, symBinAddr: 0x100006810, symSize: 0x70 }
  - { offsetInCU: 0xB16D, offset: 0xB16D, size: 0x8, addend: 0x0, symName: __ZNSt3__119__constexpr_memmoveB8ue170006ImKmLi0EEEPT_S3_PT0_NS_15__element_countE, symObjAddr: 0x5B50, symBinAddr: 0x100006880, symSize: 0x50 }
  - { offsetInCU: 0xB1DB, offset: 0xB1DB, size: 0x8, addend: 0x0, symName: __ZNSt3__19make_pairB8ue170006IRPKmPmEENS_4pairINS_18__unwrap_ref_decayIT_E4typeENS6_IT0_E4typeEEEOS7_OSA_, symObjAddr: 0x5BA0, symBinAddr: 0x1000068D0, symSize: 0x30 }
  - { offsetInCU: 0xB22A, offset: 0xB22A, size: 0x8, addend: 0x0, symName: __ZNSt3__113__rewrap_iterB8ue170006IPKmS2_NS_18__unwrap_iter_implIS2_Lb1EEEEET_S5_T0_, symObjAddr: 0x5C90, symBinAddr: 0x1000069C0, symSize: 0x40 }
  - { offsetInCU: 0xB27F, offset: 0xB27F, size: 0x8, addend: 0x0, symName: __ZNSt3__14swapB8ue170006IPmEENS_9enable_ifIXaasr21is_move_constructibleIT_EE5valuesr18is_move_assignableIS3_EE5valueEvE4typeERS3_S6_, symObjAddr: 0x5DD0, symBinAddr: 0x100006B00, symSize: 0x40 }
  - { offsetInCU: 0xB2D0, offset: 0xB2D0, size: 0x8, addend: 0x0, symName: __ZNSt3__14swapB8ue170006ImEENS_9enable_ifIXaasr21is_move_constructibleIT_EE5valuesr18is_move_assignableIS2_EE5valueEvE4typeERS2_S5_, symObjAddr: 0x5E10, symBinAddr: 0x100006B40, symSize: 0x40 }
  - { offsetInCU: 0xB321, offset: 0xB321, size: 0x8, addend: 0x0, symName: __ZNSt3__116__swap_allocatorB8ue170006INS_9allocatorImEEEEvRT_S4_NS_17integral_constantIbLb0EEE, symObjAddr: 0x5E50, symBinAddr: 0x100006B80, symSize: 0x10 }
  - { offsetInCU: 0xB362, offset: 0xB362, size: 0x8, addend: 0x0, symName: __ZNSt3__16fill_nB8ue170006IPmmmEET_S2_T0_RKT1_, symObjAddr: 0x61D0, symBinAddr: 0x100006F00, symSize: 0x40 }
  - { offsetInCU: 0xB3C5, offset: 0xB3C5, size: 0x8, addend: 0x0, symName: __ZNSt3__18__fill_nB8ue170006IPmmmEET_S2_T0_RKT1_, symObjAddr: 0x6210, symBinAddr: 0x100006F40, symSize: 0x50 }
  - { offsetInCU: 0xB428, offset: 0xB428, size: 0x8, addend: 0x0, symName: __ZNSt3__121__convert_to_integralB8ue170006Em, symObjAddr: 0x6260, symBinAddr: 0x100006F90, symSize: 0x10 }
  - { offsetInCU: 0xB454, offset: 0xB454, size: 0x8, addend: 0x0, symName: __ZNSt3__16fill_nB8ue170006IPmmiEET_S2_T0_RKT1_, symObjAddr: 0x6270, symBinAddr: 0x100006FA0, symSize: 0x40 }
  - { offsetInCU: 0xB4B7, offset: 0xB4B7, size: 0x8, addend: 0x0, symName: __ZNSt3__18__fill_nB8ue170006IPmmiEET_S2_T0_RKT1_, symObjAddr: 0x62B0, symBinAddr: 0x100006FE0, symSize: 0x50 }
  - { offsetInCU: 0xB51A, offset: 0xB51A, size: 0x8, addend: 0x0, symName: __ZNSt3__116__pad_and_outputB8ue170006IcNS_11char_traitsIcEEEENS_19ostreambuf_iteratorIT_T0_EES6_PKS4_S8_S8_RNS_8ios_baseES4_, symObjAddr: 0x6670, symBinAddr: 0x1000073A0, symSize: 0x220 }
  - { offsetInCU: 0xB5EA, offset: 0xB5EA, size: 0x8, addend: 0x0, symName: __ZNSt3__112__to_addressB8ue170006IKcEEPT_S3_, symObjAddr: 0x6B90, symBinAddr: 0x1000078C0, symSize: 0x10 }
  - { offsetInCU: 0xB652, offset: 0xB652, size: 0x8, addend: 0x0, symName: __ZNSt3__19use_facetB8ue170006INS_5ctypeIcEEEERKT_RKNS_6localeE, symObjAddr: 0x6DF0, symBinAddr: 0x100007B20, symSize: 0x30 }
  - { offsetInCU: 0xBB1F, offset: 0xBB1F, size: 0x8, addend: 0x0, symName: __ZNSt3__118__constexpr_strlenB8ue170006EPKc, symObjAddr: 0x6E80, symBinAddr: 0x100007BB0, symSize: 0x1B }
  - { offsetInCU: 0xBF60, offset: 0xBF60, size: 0x8, addend: 0x0, symName: __ZSt28__throw_bad_array_new_lengthB8ue170006v, symObjAddr: 0x11A0, symBinAddr: 0x100001ED0, symSize: 0x40 }
  - { offsetInCU: 0xC50A, offset: 0xC50A, size: 0x8, addend: 0x0, symName: __ZNSt3__16vectorINS0_ImNS_9allocatorImEEEENS1_IS3_EEE26__swap_out_circular_bufferERNS_14__split_bufferIS3_RS4_EE, symObjAddr: 0x1C00, symBinAddr: 0x100002930, symSize: 0x120 }
  - { offsetInCU: 0xEAD5, offset: 0xEAD5, size: 0x8, addend: 0x0, symName: __Z10Board_initP5Boardm, symObjAddr: 0x0, symBinAddr: 0x100000D30, symSize: 0xA0 }
  - { offsetInCU: 0xEB0B, offset: 0xEB0B, size: 0x8, addend: 0x0, symName: __ZNSt3__16vectorINS0_ImNS_9allocatorImEEEENS1_IS3_EEE6resizeEmRKS3_, symObjAddr: 0xA0, symBinAddr: 0x100000DD0, symSize: 0x80 }
  - { offsetInCU: 0xEB5F, offset: 0xEB5F, size: 0x8, addend: 0x0, symName: __ZNSt3__16vectorImNS_9allocatorImEEEC1EmRKm, symObjAddr: 0x120, symBinAddr: 0x100000E50, symSize: 0x30 }
  - { offsetInCU: 0xEBA8, offset: 0xEBA8, size: 0x8, addend: 0x0, symName: __ZNSt3__16vectorImNS_9allocatorImEEED1B8ue170006Ev, symObjAddr: 0x150, symBinAddr: 0x100000E80, symSize: 0x20 }
  - { offsetInCU: 0xEBD0, offset: 0xEBD0, size: 0x8, addend: 0x0, symName: __ZNSt3__16vectorIbNS_9allocatorIbEEE6resizeEmb, symObjAddr: 0x170, symBinAddr: 0x100000EA0, symSize: 0x240 }
  - { offsetInCU: 0xEC6C, offset: 0xEC6C, size: 0x8, addend: 0x0, symName: __Z16Board_placeQueenP5Boardii, symObjAddr: 0x3B0, symBinAddr: 0x1000010E0, symSize: 0x70 }
  - { offsetInCU: 0xECB0, offset: 0xECB0, size: 0x8, addend: 0x0, symName: __ZNSt3__16vectorINS0_ImNS_9allocatorImEEEENS1_IS3_EEEixB8ue170006Em, symObjAddr: 0x420, symBinAddr: 0x100001150, symSize: 0x20 }
  - { offsetInCU: 0xECE5, offset: 0xECE5, size: 0x8, addend: 0x0, symName: __ZNSt3__16vectorImNS_9allocatorImEEEixB8ue170006Em, symObjAddr: 0x440, symBinAddr: 0x100001170, symSize: 0x20 }
  - { offsetInCU: 0xED1B, offset: 0xED1B, size: 0x8, addend: 0x0, symName: __ZNSt3__16vectorIbNS_9allocatorIbEEEixB8ue170006Em, symObjAddr: 0x460, symBinAddr: 0x100001190, symSize: 0x40 }
  - { offsetInCU: 0xED4F, offset: 0xED4F, size: 0x8, addend: 0x0, symName: __ZNSt3__115__bit_referenceINS_6vectorIbNS_9allocatorIbEEEELb1EEaSB8ue170006Eb, symObjAddr: 0x4A0, symBinAddr: 0x1000011D0, symSize: 0x60 }
  - { offsetInCU: 0xED81, offset: 0xED81, size: 0x8, addend: 0x0, symName: __Z17Board_removeQueenP5Boardii, symObjAddr: 0x500, symBinAddr: 0x100001230, symSize: 0x60 }
  - { offsetInCU: 0xEDC5, offset: 0xEDC5, size: 0x8, addend: 0x0, symName: __Z12Board_isSafePK5Boardii, symObjAddr: 0x560, symBinAddr: 0x100001290, symSize: 0x180 }
  - { offsetInCU: 0xEE62, offset: 0xEE62, size: 0x8, addend: 0x0, symName: __ZNKSt3__16vectorIbNS_9allocatorIbEEEixB8ue170006Em, symObjAddr: 0x6E0, symBinAddr: 0x100001410, symSize: 0x40 }
  - { offsetInCU: 0xEE96, offset: 0xEE96, size: 0x8, addend: 0x0, symName: __ZNKSt3__121__bit_const_referenceINS_6vectorIbNS_9allocatorIbEEEEEcvbB8ue170006Ev, symObjAddr: 0x720, symBinAddr: 0x100001450, symSize: 0x30 }
  - { offsetInCU: 0xEEBA, offset: 0xEEBA, size: 0x8, addend: 0x0, symName: __ZNKSt3__16vectorINS0_ImNS_9allocatorImEEEENS1_IS3_EEEixB8ue170006Em, symObjAddr: 0x750, symBinAddr: 0x100001480, symSize: 0x20 }
  - { offsetInCU: 0xEEEF, offset: 0xEEEF, size: 0x8, addend: 0x0, symName: __ZNKSt3__16vectorImNS_9allocatorImEEEixB8ue170006Em, symObjAddr: 0x770, symBinAddr: 0x1000014A0, symSize: 0x20 }
  - { offsetInCU: 0xEF24, offset: 0xEF24, size: 0x8, addend: 0x0, symName: __Z13Board_displayPK5Board, symObjAddr: 0x790, symBinAddr: 0x1000014C0, symSize: 0xD0 }
  - { offsetInCU: 0xEF85, offset: 0xEF85, size: 0x8, addend: 0x0, symName: __ZNSt3__113basic_ostreamIcNS_11char_traitsIcEEElsB8ue170006EPFRS3_S4_E, symObjAddr: 0x8A0, symBinAddr: 0x1000015D0, symSize: 0x20 }
  - { offsetInCU: 0xEFB8, offset: 0xEFB8, size: 0x8, addend: 0x0, symName: __ZNSt3__16vectorImNS_9allocatorImEEEC2EmRKm, symObjAddr: 0x910, symBinAddr: 0x100001640, symSize: 0xE0 }
  - { offsetInCU: 0xF020, offset: 0xF020, size: 0x8, addend: 0x0, symName: __ZNSt3__117__compressed_pairIPmNS_9allocatorImEEEC1B8ue170006IDnNS_18__default_init_tagEEEOT_OT0_, symObjAddr: 0x9F0, symBinAddr: 0x100001720, symSize: 0x30 }
  - { offsetInCU: 0xF077, offset: 0xF077, size: 0x8, addend: 0x0, symName: __ZNSt3__16vectorImNS_9allocatorImEEE16__destroy_vectorC1B8ue170006ERS3_, symObjAddr: 0xA60, symBinAddr: 0x100001790, symSize: 0x30 }
  - { offsetInCU: 0xF0AF, offset: 0xF0AF, size: 0x8, addend: 0x0, symName: __ZNSt3__16vectorImNS_9allocatorImEEE11__vallocateB8ue170006Em, symObjAddr: 0xA90, symBinAddr: 0x1000017C0, symSize: 0xA0 }
  - { offsetInCU: 0xF0F1, offset: 0xF0F1, size: 0x8, addend: 0x0, symName: __ZNSt3__16vectorImNS_9allocatorImEEE18__construct_at_endEmRKm, symObjAddr: 0xB30, symBinAddr: 0x100001860, symSize: 0xC0 }
  - { offsetInCU: 0xF171, offset: 0xF171, size: 0x8, addend: 0x0, symName: __ZNSt3__128__exception_guard_exceptionsINS_6vectorImNS_9allocatorImEEE16__destroy_vectorEE10__completeB8ue170006Ev, symObjAddr: 0xBF0, symBinAddr: 0x100001920, symSize: 0x20 }
  - { offsetInCU: 0xF196, offset: 0xF196, size: 0x8, addend: 0x0, symName: __ZNSt3__128__exception_guard_exceptionsINS_6vectorImNS_9allocatorImEEE16__destroy_vectorEED1B8ue170006Ev, symObjAddr: 0xC10, symBinAddr: 0x100001940, symSize: 0x20 }
  - { offsetInCU: 0xF1BF, offset: 0xF1BF, size: 0x8, addend: 0x0, symName: __ZNSt3__117__compressed_pairIPmNS_9allocatorImEEEC2B8ue170006IDnNS_18__default_init_tagEEEOT_OT0_, symObjAddr: 0xC30, symBinAddr: 0x100001960, symSize: 0x40 }
  - { offsetInCU: 0xF216, offset: 0xF216, size: 0x8, addend: 0x0, symName: __ZNSt3__122__compressed_pair_elemIPmLi0ELb0EEC2B8ue170006IDnvEEOT_, symObjAddr: 0xC70, symBinAddr: 0x1000019A0, symSize: 0x20 }
  - { offsetInCU: 0xF257, offset: 0xF257, size: 0x8, addend: 0x0, symName: __ZNSt3__122__compressed_pair_elemINS_9allocatorImEELi1ELb1EEC2B8ue170006ENS_18__default_init_tagE, symObjAddr: 0xC90, symBinAddr: 0x1000019C0, symSize: 0x20 }
  - { offsetInCU: 0xF28A, offset: 0xF28A, size: 0x8, addend: 0x0, symName: __ZNSt3__19allocatorImEC2B8ue170006Ev, symObjAddr: 0xCB0, symBinAddr: 0x1000019E0, symSize: 0x20 }
  - { offsetInCU: 0xF2B3, offset: 0xF2B3, size: 0x8, addend: 0x0, symName: __ZNSt3__116__non_trivial_ifILb1ENS_9allocatorImEEEC2B8ue170006Ev, symObjAddr: 0xCD0, symBinAddr: 0x100001A00, symSize: 0x10 }
  - { offsetInCU: 0xF2DC, offset: 0xF2DC, size: 0x8, addend: 0x0, symName: __ZNSt3__128__exception_guard_exceptionsINS_6vectorImNS_9allocatorImEEE16__destroy_vectorEEC1B8ue170006ES5_, symObjAddr: 0xCE0, symBinAddr: 0x100001A10, symSize: 0x30 }
  - { offsetInCU: 0xF313, offset: 0xF313, size: 0x8, addend: 0x0, symName: __ZNSt3__128__exception_guard_exceptionsINS_6vectorImNS_9allocatorImEEE16__destroy_vectorEEC2B8ue170006ES5_, symObjAddr: 0xD10, symBinAddr: 0x100001A40, symSize: 0x20 }
  - { offsetInCU: 0xF34A, offset: 0xF34A, size: 0x8, addend: 0x0, symName: __ZNSt3__16vectorImNS_9allocatorImEEE16__destroy_vectorC2B8ue170006ERS3_, symObjAddr: 0xD30, symBinAddr: 0x100001A60, symSize: 0x20 }
  - { offsetInCU: 0xF381, offset: 0xF381, size: 0x8, addend: 0x0, symName: __ZNKSt3__16vectorImNS_9allocatorImEEE8max_sizeEv, symObjAddr: 0xD50, symBinAddr: 0x100001A80, symSize: 0x60 }
  - { offsetInCU: 0xF3A8, offset: 0xF3A8, size: 0x8, addend: 0x0, symName: __ZNKSt3__16vectorImNS_9allocatorImEEE20__throw_length_errorB8ue170006Ev, symObjAddr: 0xDB0, symBinAddr: 0x100001AE0, symSize: 0x20 }
  - { offsetInCU: 0xF3CD, offset: 0xF3CD, size: 0x8, addend: 0x0, symName: __ZNSt3__16vectorImNS_9allocatorImEEE7__allocB8ue170006Ev, symObjAddr: 0xE10, symBinAddr: 0x100001B40, symSize: 0x20 }
  - { offsetInCU: 0xF3F2, offset: 0xF3F2, size: 0x8, addend: 0x0, symName: __ZNSt3__16vectorImNS_9allocatorImEEE9__end_capB8ue170006Ev, symObjAddr: 0xE30, symBinAddr: 0x100001B60, symSize: 0x20 }
  - { offsetInCU: 0xF417, offset: 0xF417, size: 0x8, addend: 0x0, symName: __ZNKSt3__16vectorImNS_9allocatorImEEE14__annotate_newB8ue170006Em, symObjAddr: 0xE50, symBinAddr: 0x100001B80, symSize: 0xB0 }
  - { offsetInCU: 0xF455, offset: 0xF455, size: 0x8, addend: 0x0, symName: __ZNSt3__116allocator_traitsINS_9allocatorImEEE8max_sizeB8ue170006IS2_vEEmRKS2_, symObjAddr: 0xF30, symBinAddr: 0x100001C60, symSize: 0x20 }
  - { offsetInCU: 0xF483, offset: 0xF483, size: 0x8, addend: 0x0, symName: __ZNKSt3__16vectorImNS_9allocatorImEEE7__allocB8ue170006Ev, symObjAddr: 0xF50, symBinAddr: 0x100001C80, symSize: 0x20 }
  - { offsetInCU: 0xF4A8, offset: 0xF4A8, size: 0x8, addend: 0x0, symName: __ZNSt3__114numeric_limitsIlE3maxB8ue170006Ev, symObjAddr: 0xF70, symBinAddr: 0x100001CA0, symSize: 0x10 }
  - { offsetInCU: 0xF4C6, offset: 0xF4C6, size: 0x8, addend: 0x0, symName: __ZNKSt3__16__lessIvvEclB8ue170006ImmEEbRKT_RKT0_, symObjAddr: 0xFE0, symBinAddr: 0x100001D10, symSize: 0x30 }
  - { offsetInCU: 0xF519, offset: 0xF519, size: 0x8, addend: 0x0, symName: __ZNKSt3__19allocatorImE8max_sizeB8ue170006Ev, symObjAddr: 0x1010, symBinAddr: 0x100001D40, symSize: 0x20 }
  - { offsetInCU: 0xF53E, offset: 0xF53E, size: 0x8, addend: 0x0, symName: __ZNKSt3__117__compressed_pairIPmNS_9allocatorImEEE6secondB8ue170006Ev, symObjAddr: 0x1030, symBinAddr: 0x100001D60, symSize: 0x20 }
  - { offsetInCU: 0xF563, offset: 0xF563, size: 0x8, addend: 0x0, symName: __ZNKSt3__122__compressed_pair_elemINS_9allocatorImEELi1ELb1EE5__getB8ue170006Ev, symObjAddr: 0x1050, symBinAddr: 0x100001D80, symSize: 0x10 }
  - { offsetInCU: 0xF588, offset: 0xF588, size: 0x8, addend: 0x0, symName: __ZNSt3__123__libcpp_numeric_limitsIlLb1EE3maxB8ue170006Ev, symObjAddr: 0x1060, symBinAddr: 0x100001D90, symSize: 0x10 }
  - { offsetInCU: 0xF59C, offset: 0xF59C, size: 0x8, addend: 0x0, symName: __ZNSt12length_errorC1B8ue170006EPKc, symObjAddr: 0x10E0, symBinAddr: 0x100001E10, symSize: 0x30 }
  - { offsetInCU: 0xF5D3, offset: 0xF5D3, size: 0x8, addend: 0x0, symName: __ZNSt12length_errorC2B8ue170006EPKc, symObjAddr: 0x1110, symBinAddr: 0x100001E40, symSize: 0x40 }
  - { offsetInCU: 0xF60A, offset: 0xF60A, size: 0x8, addend: 0x0, symName: __ZNSt3__19allocatorImE8allocateB8ue170006Em, symObjAddr: 0x1150, symBinAddr: 0x100001E80, symSize: 0x50 }
  - { offsetInCU: 0xF63D, offset: 0xF63D, size: 0x8, addend: 0x0, symName: __ZNSt3__117__compressed_pairIPmNS_9allocatorImEEE6secondB8ue170006Ev, symObjAddr: 0x1220, symBinAddr: 0x100001F50, symSize: 0x20 }
  - { offsetInCU: 0xF662, offset: 0xF662, size: 0x8, addend: 0x0, symName: __ZNSt3__122__compressed_pair_elemINS_9allocatorImEELi1ELb1EE5__getB8ue170006Ev, symObjAddr: 0x1240, symBinAddr: 0x100001F70, symSize: 0x10 }
  - { offsetInCU: 0xF687, offset: 0xF687, size: 0x8, addend: 0x0, symName: __ZNSt3__117__compressed_pairIPmNS_9allocatorImEEE5firstB8ue170006Ev, symObjAddr: 0x1250, symBinAddr: 0x100001F80, symSize: 0x20 }
  - { offsetInCU: 0xF6AC, offset: 0xF6AC, size: 0x8, addend: 0x0, symName: __ZNSt3__122__compressed_pair_elemIPmLi0ELb0EE5__getB8ue170006Ev, symObjAddr: 0x1270, symBinAddr: 0x100001FA0, symSize: 0x10 }
  - { offsetInCU: 0xF6D1, offset: 0xF6D1, size: 0x8, addend: 0x0, symName: __ZNKSt3__16vectorImNS_9allocatorImEEE31__annotate_contiguous_containerB8ue170006EPKvS5_S5_S5_, symObjAddr: 0x1280, symBinAddr: 0x100001FB0, symSize: 0x20 }
  - { offsetInCU: 0xF722, offset: 0xF722, size: 0x8, addend: 0x0, symName: __ZNKSt3__16vectorImNS_9allocatorImEEE4dataB8ue170006Ev, symObjAddr: 0x12A0, symBinAddr: 0x100001FD0, symSize: 0x20 }
  - { offsetInCU: 0xF747, offset: 0xF747, size: 0x8, addend: 0x0, symName: __ZNKSt3__16vectorImNS_9allocatorImEEE8capacityB8ue170006Ev, symObjAddr: 0x12C0, symBinAddr: 0x100001FF0, symSize: 0x30 }
  - { offsetInCU: 0xF76C, offset: 0xF76C, size: 0x8, addend: 0x0, symName: __ZNKSt3__16vectorImNS_9allocatorImEEE9__end_capB8ue170006Ev, symObjAddr: 0x1300, symBinAddr: 0x100002030, symSize: 0x20 }
  - { offsetInCU: 0xF791, offset: 0xF791, size: 0x8, addend: 0x0, symName: __ZNKSt3__117__compressed_pairIPmNS_9allocatorImEEE5firstB8ue170006Ev, symObjAddr: 0x1320, symBinAddr: 0x100002050, symSize: 0x20 }
  - { offsetInCU: 0xF7B6, offset: 0xF7B6, size: 0x8, addend: 0x0, symName: __ZNKSt3__122__compressed_pair_elemIPmLi0ELb0EE5__getB8ue170006Ev, symObjAddr: 0x1340, symBinAddr: 0x100002070, symSize: 0x10 }
  - { offsetInCU: 0xF7F4, offset: 0xF7F4, size: 0x8, addend: 0x0, symName: __ZNSt3__16vectorImNS_9allocatorImEEE21_ConstructTransactionC1B8ue170006ERS3_m, symObjAddr: 0x1350, symBinAddr: 0x100002080, symSize: 0x30 }
  - { offsetInCU: 0xF83B, offset: 0xF83B, size: 0x8, addend: 0x0, symName: __ZNSt3__116allocator_traitsINS_9allocatorImEEE9constructB8ue170006ImJRKmEvEEvRS2_PT_DpOT0_, symObjAddr: 0x1380, symBinAddr: 0x1000020B0, symSize: 0x30 }
  - { offsetInCU: 0xF892, offset: 0xF892, size: 0x8, addend: 0x0, symName: __ZNSt3__16vectorImNS_9allocatorImEEE21_ConstructTransactionD1B8ue170006Ev, symObjAddr: 0x13B0, symBinAddr: 0x1000020E0, symSize: 0x20 }
  - { offsetInCU: 0xF8BB, offset: 0xF8BB, size: 0x8, addend: 0x0, symName: __ZNSt3__16vectorImNS_9allocatorImEEE21_ConstructTransactionC2B8ue170006ERS3_m, symObjAddr: 0x13D0, symBinAddr: 0x100002100, symSize: 0x40 }
  - { offsetInCU: 0xF902, offset: 0xF902, size: 0x8, addend: 0x0, symName: __ZNSt3__19allocatorImE9constructB8ue170006ImJRKmEEEvPT_DpOT0_, symObjAddr: 0x1410, symBinAddr: 0x100002140, symSize: 0x20 }
  - { offsetInCU: 0xF957, offset: 0xF957, size: 0x8, addend: 0x0, symName: __ZNSt3__16vectorImNS_9allocatorImEEE21_ConstructTransactionD2B8ue170006Ev, symObjAddr: 0x1430, symBinAddr: 0x100002160, symSize: 0x20 }
  - { offsetInCU: 0xF980, offset: 0xF980, size: 0x8, addend: 0x0, symName: __ZNSt3__128__exception_guard_exceptionsINS_6vectorImNS_9allocatorImEEE16__destroy_vectorEED2B8ue170006Ev, symObjAddr: 0x1450, symBinAddr: 0x100002180, symSize: 0x40 }
  - { offsetInCU: 0xF9A9, offset: 0xF9A9, size: 0x8, addend: 0x0, symName: __ZNSt3__16vectorImNS_9allocatorImEEE16__destroy_vectorclB8ue170006Ev, symObjAddr: 0x1490, symBinAddr: 0x1000021C0, symSize: 0x80 }
  - { offsetInCU: 0xF9CE, offset: 0xF9CE, size: 0x8, addend: 0x0, symName: __ZNSt3__16vectorImNS_9allocatorImEEE7__clearB8ue170006Ev, symObjAddr: 0x1510, symBinAddr: 0x100002240, symSize: 0x20 }
  - { offsetInCU: 0xF9F3, offset: 0xF9F3, size: 0x8, addend: 0x0, symName: __ZNKSt3__16vectorImNS_9allocatorImEEE17__annotate_deleteB8ue170006Ev, symObjAddr: 0x1530, symBinAddr: 0x100002260, symSize: 0xB0 }
  - { offsetInCU: 0xFA18, offset: 0xFA18, size: 0x8, addend: 0x0, symName: __ZNSt3__116allocator_traitsINS_9allocatorImEEE10deallocateB8ue170006ERS2_Pmm, symObjAddr: 0x15E0, symBinAddr: 0x100002310, symSize: 0x30 }
  - { offsetInCU: 0xFA5A, offset: 0xFA5A, size: 0x8, addend: 0x0, symName: __ZNSt3__16vectorImNS_9allocatorImEEE22__base_destruct_at_endB8ue170006EPm, symObjAddr: 0x1610, symBinAddr: 0x100002340, symSize: 0x80 }
  - { offsetInCU: 0xFA9D, offset: 0xFA9D, size: 0x8, addend: 0x0, symName: __ZNSt3__116allocator_traitsINS_9allocatorImEEE7destroyB8ue170006ImvEEvRS2_PT_, symObjAddr: 0x1690, symBinAddr: 0x1000023C0, symSize: 0x30 }
  - { offsetInCU: 0xFADA, offset: 0xFADA, size: 0x8, addend: 0x0, symName: __ZNSt3__19allocatorImE7destroyB8ue170006EPm, symObjAddr: 0x16C0, symBinAddr: 0x1000023F0, symSize: 0x10 }
  - { offsetInCU: 0xFB0D, offset: 0xFB0D, size: 0x8, addend: 0x0, symName: __ZNKSt3__16vectorImNS_9allocatorImEEE4sizeB8ue170006Ev, symObjAddr: 0x16D0, symBinAddr: 0x100002400, symSize: 0x20 }
  - { offsetInCU: 0xFB32, offset: 0xFB32, size: 0x8, addend: 0x0, symName: __ZNSt3__19allocatorImE10deallocateB8ue170006EPmm, symObjAddr: 0x16F0, symBinAddr: 0x100002420, symSize: 0x40 }
  - { offsetInCU: 0xFB73, offset: 0xFB73, size: 0x8, addend: 0x0, symName: __ZNSt3__16vectorImNS_9allocatorImEEED2B8ue170006Ev, symObjAddr: 0x17A0, symBinAddr: 0x1000024D0, symSize: 0x40 }
  - { offsetInCU: 0xFB9C, offset: 0xFB9C, size: 0x8, addend: 0x0, symName: __ZNKSt3__16vectorINS0_ImNS_9allocatorImEEEENS1_IS3_EEE4sizeB8ue170006Ev, symObjAddr: 0x17E0, symBinAddr: 0x100002510, symSize: 0x30 }
  - { offsetInCU: 0xFBC0, offset: 0xFBC0, size: 0x8, addend: 0x0, symName: __ZNSt3__16vectorINS0_ImNS_9allocatorImEEEENS1_IS3_EEE8__appendEmRKS3_, symObjAddr: 0x1810, symBinAddr: 0x100002540, symSize: 0x110 }
  - { offsetInCU: 0xFC2A, offset: 0xFC2A, size: 0x8, addend: 0x0, symName: __ZNSt3__16vectorINS0_ImNS_9allocatorImEEEENS1_IS3_EEE17__destruct_at_endB8ue170006EPS3_, symObjAddr: 0x1920, symBinAddr: 0x100002650, symSize: 0x50 }
  - { offsetInCU: 0xFC6D, offset: 0xFC6D, size: 0x8, addend: 0x0, symName: __ZNSt3__16vectorINS0_ImNS_9allocatorImEEEENS1_IS3_EEE9__end_capB8ue170006Ev, symObjAddr: 0x1970, symBinAddr: 0x1000026A0, symSize: 0x20 }
  - { offsetInCU: 0xFC91, offset: 0xFC91, size: 0x8, addend: 0x0, symName: __ZNSt3__16vectorINS0_ImNS_9allocatorImEEEENS1_IS3_EEE18__construct_at_endEmRKS3_, symObjAddr: 0x1990, symBinAddr: 0x1000026C0, symSize: 0xC0 }
  - { offsetInCU: 0xFD11, offset: 0xFD11, size: 0x8, addend: 0x0, symName: __ZNSt3__16vectorINS0_ImNS_9allocatorImEEEENS1_IS3_EEE7__allocB8ue170006Ev, symObjAddr: 0x1A50, symBinAddr: 0x100002780, symSize: 0x20 }
  - { offsetInCU: 0xFD35, offset: 0xFD35, size: 0x8, addend: 0x0, symName: __ZNKSt3__16vectorINS0_ImNS_9allocatorImEEEENS1_IS3_EEE11__recommendB8ue170006Em, symObjAddr: 0x1A70, symBinAddr: 0x1000027A0, symSize: 0xA0 }
  - { offsetInCU: 0xFD89, offset: 0xFD89, size: 0x8, addend: 0x0, symName: __ZNSt3__114__split_bufferINS_6vectorImNS_9allocatorImEEEERNS2_IS4_EEEC1EmmS6_, symObjAddr: 0x1B10, symBinAddr: 0x100002840, symSize: 0x40 }
  - { offsetInCU: 0xFDDD, offset: 0xFDDD, size: 0x8, addend: 0x0, symName: __ZNSt3__114__split_bufferINS_6vectorImNS_9allocatorImEEEERNS2_IS4_EEE18__construct_at_endEmRKS4_, symObjAddr: 0x1B50, symBinAddr: 0x100002880, symSize: 0xB0 }
  - { offsetInCU: 0xFE2F, offset: 0xFE2F, size: 0x8, addend: 0x0, symName: __ZNSt3__114__split_bufferINS_6vectorImNS_9allocatorImEEEERNS2_IS4_EEED1Ev, symObjAddr: 0x1D20, symBinAddr: 0x100002A50, symSize: 0x20 }
  - { offsetInCU: 0xFE5A, offset: 0xFE5A, size: 0x8, addend: 0x0, symName: __ZNSt3__117__compressed_pairIPNS_6vectorImNS_9allocatorImEEEENS2_IS4_EEE5firstB8ue170006Ev, symObjAddr: 0x1D40, symBinAddr: 0x100002A70, symSize: 0x20 }
  - { offsetInCU: 0xFE7F, offset: 0xFE7F, size: 0x8, addend: 0x0, symName: __ZNSt3__122__compressed_pair_elemIPNS_6vectorImNS_9allocatorImEEEELi0ELb0EE5__getB8ue170006Ev, symObjAddr: 0x1D60, symBinAddr: 0x100002A90, symSize: 0x10 }
  - { offsetInCU: 0xFEBD, offset: 0xFEBD, size: 0x8, addend: 0x0, symName: __ZNSt3__16vectorINS0_ImNS_9allocatorImEEEENS1_IS3_EEE21_ConstructTransactionC1B8ue170006ERS5_m, symObjAddr: 0x1D70, symBinAddr: 0x100002AA0, symSize: 0x30 }
  - { offsetInCU: 0xFF04, offset: 0xFF04, size: 0x8, addend: 0x0, symName: __ZNSt3__116allocator_traitsINS_9allocatorINS_6vectorImNS1_ImEEEEEEE9constructB8ue170006IS4_JRKS4_EvEEvRS5_PT_DpOT0_, symObjAddr: 0x1DA0, symBinAddr: 0x100002AD0, symSize: 0x30 }
  - { offsetInCU: 0xFF5B, offset: 0xFF5B, size: 0x8, addend: 0x0, symName: __ZNSt3__16vectorINS0_ImNS_9allocatorImEEEENS1_IS3_EEE21_ConstructTransactionD1B8ue170006Ev, symObjAddr: 0x1DE0, symBinAddr: 0x100002B10, symSize: 0x20 }
  - { offsetInCU: 0xFF84, offset: 0xFF84, size: 0x8, addend: 0x0, symName: __ZNSt3__16vectorINS0_ImNS_9allocatorImEEEENS1_IS3_EEE21_ConstructTransactionC2B8ue170006ERS5_m, symObjAddr: 0x1E00, symBinAddr: 0x100002B30, symSize: 0x40 }
  - { offsetInCU: 0xFFCB, offset: 0xFFCB, size: 0x8, addend: 0x0, symName: __ZNSt3__19allocatorINS_6vectorImNS0_ImEEEEE9constructB8ue170006IS3_JRKS3_EEEvPT_DpOT0_, symObjAddr: 0x1E40, symBinAddr: 0x100002B70, symSize: 0x30 }
  - { offsetInCU: 0x10020, offset: 0x10020, size: 0x8, addend: 0x0, symName: __ZNSt3__16vectorImNS_9allocatorImEEEC1ERKS3_, symObjAddr: 0x1E70, symBinAddr: 0x100002BA0, symSize: 0x30 }
  - { offsetInCU: 0x1005A, offset: 0x1005A, size: 0x8, addend: 0x0, symName: __ZNSt3__16vectorImNS_9allocatorImEEEC2ERKS3_, symObjAddr: 0x1EA0, symBinAddr: 0x100002BD0, symSize: 0xA0 }
  - { offsetInCU: 0x10094, offset: 0x10094, size: 0x8, addend: 0x0, symName: __ZNSt3__116allocator_traitsINS_9allocatorImEEE37select_on_container_copy_constructionB8ue170006IS2_vvEES2_RKS2_, symObjAddr: 0x1F40, symBinAddr: 0x100002C70, symSize: 0x10 }
  - { offsetInCU: 0x100C8, offset: 0x100C8, size: 0x8, addend: 0x0, symName: __ZNSt3__117__compressed_pairIPmNS_9allocatorImEEEC1B8ue170006IDnS3_EEOT_OT0_, symObjAddr: 0x1F50, symBinAddr: 0x100002C80, symSize: 0x30 }
  - { offsetInCU: 0x1011F, offset: 0x1011F, size: 0x8, addend: 0x0, symName: __ZNSt3__16vectorImNS_9allocatorImEEE16__init_with_sizeB8ue170006IPmS5_EEvT_T0_m, symObjAddr: 0x1F80, symBinAddr: 0x100002CB0, symSize: 0xB0 }
  - { offsetInCU: 0x10192, offset: 0x10192, size: 0x8, addend: 0x0, symName: __ZNSt3__117__compressed_pairIPmNS_9allocatorImEEEC2B8ue170006IDnS3_EEOT_OT0_, symObjAddr: 0x2030, symBinAddr: 0x100002D60, symSize: 0x40 }
  - { offsetInCU: 0x101E9, offset: 0x101E9, size: 0x8, addend: 0x0, symName: __ZNSt3__122__compressed_pair_elemINS_9allocatorImEELi1ELb1EEC2B8ue170006IS2_vEEOT_, symObjAddr: 0x2070, symBinAddr: 0x100002DA0, symSize: 0x10 }
  - { offsetInCU: 0x10229, offset: 0x10229, size: 0x8, addend: 0x0, symName: __ZNSt3__16vectorImNS_9allocatorImEEE18__construct_at_endIPmS5_EEvT_T0_m, symObjAddr: 0x2080, symBinAddr: 0x100002DB0, symSize: 0x90 }
  - { offsetInCU: 0x102BC, offset: 0x102BC, size: 0x8, addend: 0x0, symName: __ZNSt3__14pairIPmS1_EC1B8ue170006IS1_S1_LPv0EEEOT_OT0_, symObjAddr: 0x22A0, symBinAddr: 0x100002FD0, symSize: 0x30 }
  - { offsetInCU: 0x10319, offset: 0x10319, size: 0x8, addend: 0x0, symName: __ZNSt3__14pairIPmS1_EC2B8ue170006IS1_S1_LPv0EEEOT_OT0_, symObjAddr: 0x22D0, symBinAddr: 0x100003000, symSize: 0x30 }
  - { offsetInCU: 0x10380, offset: 0x10380, size: 0x8, addend: 0x0, symName: __ZNKSt3__114__copy_trivialclB8ue170006ImmLi0EEENS_4pairIPT_PT0_EES4_S4_S6_, symObjAddr: 0x2470, symBinAddr: 0x1000031A0, symSize: 0x40 }
  - { offsetInCU: 0x103E7, offset: 0x103E7, size: 0x8, addend: 0x0, symName: __ZNSt3__14pairIPmS1_EC1B8ue170006IRS1_S1_LPv0EEEOT_OT0_, symObjAddr: 0x25D0, symBinAddr: 0x100003300, symSize: 0x30 }
  - { offsetInCU: 0x10444, offset: 0x10444, size: 0x8, addend: 0x0, symName: __ZNSt3__14pairIPmS1_EC2B8ue170006IRS1_S1_LPv0EEEOT_OT0_, symObjAddr: 0x2600, symBinAddr: 0x100003330, symSize: 0x30 }
  - { offsetInCU: 0x104A1, offset: 0x104A1, size: 0x8, addend: 0x0, symName: __ZNSt3__118__unwrap_iter_implIPmLb1EE8__unwrapB8ue170006ES1_, symObjAddr: 0x2630, symBinAddr: 0x100003360, symSize: 0x20 }
  - { offsetInCU: 0x104C4, offset: 0x104C4, size: 0x8, addend: 0x0, symName: __ZNSt3__118__unwrap_iter_implIPmLb1EE8__rewrapB8ue170006ES1_S1_, symObjAddr: 0x2650, symBinAddr: 0x100003380, symSize: 0x50 }
  - { offsetInCU: 0x104F5, offset: 0x104F5, size: 0x8, addend: 0x0, symName: __ZNSt3__16vectorINS0_ImNS_9allocatorImEEEENS1_IS3_EEE21_ConstructTransactionD2B8ue170006Ev, symObjAddr: 0x26A0, symBinAddr: 0x1000033D0, symSize: 0x20 }
  - { offsetInCU: 0x1051E, offset: 0x1051E, size: 0x8, addend: 0x0, symName: __ZNSt3__117__compressed_pairIPNS_6vectorImNS_9allocatorImEEEENS2_IS4_EEE6secondB8ue170006Ev, symObjAddr: 0x26C0, symBinAddr: 0x1000033F0, symSize: 0x20 }
  - { offsetInCU: 0x10543, offset: 0x10543, size: 0x8, addend: 0x0, symName: __ZNSt3__122__compressed_pair_elemINS_9allocatorINS_6vectorImNS1_ImEEEEEELi1ELb1EE5__getB8ue170006Ev, symObjAddr: 0x26E0, symBinAddr: 0x100003410, symSize: 0x10 }
  - { offsetInCU: 0x10567, offset: 0x10567, size: 0x8, addend: 0x0, symName: __ZNKSt3__16vectorINS0_ImNS_9allocatorImEEEENS1_IS3_EEE8max_sizeEv, symObjAddr: 0x26F0, symBinAddr: 0x100003420, symSize: 0x60 }
  - { offsetInCU: 0x1058E, offset: 0x1058E, size: 0x8, addend: 0x0, symName: __ZNKSt3__16vectorINS0_ImNS_9allocatorImEEEENS1_IS3_EEE20__throw_length_errorB8ue170006Ev, symObjAddr: 0x2750, symBinAddr: 0x100003480, symSize: 0x20 }
  - { offsetInCU: 0x105B3, offset: 0x105B3, size: 0x8, addend: 0x0, symName: __ZNKSt3__16vectorINS0_ImNS_9allocatorImEEEENS1_IS3_EEE8capacityB8ue170006Ev, symObjAddr: 0x2770, symBinAddr: 0x1000034A0, symSize: 0x40 }
  - { offsetInCU: 0x105E2, offset: 0x105E2, size: 0x8, addend: 0x0, symName: __ZNSt3__116allocator_traitsINS_9allocatorINS_6vectorImNS1_ImEEEEEEE8max_sizeB8ue170006IS5_vEEmRKS5_, symObjAddr: 0x27E0, symBinAddr: 0x100003510, symSize: 0x20 }
  - { offsetInCU: 0x10610, offset: 0x10610, size: 0x8, addend: 0x0, symName: __ZNKSt3__16vectorINS0_ImNS_9allocatorImEEEENS1_IS3_EEE7__allocB8ue170006Ev, symObjAddr: 0x2800, symBinAddr: 0x100003530, symSize: 0x20 }
  - { offsetInCU: 0x10635, offset: 0x10635, size: 0x8, addend: 0x0, symName: __ZNKSt3__19allocatorINS_6vectorImNS0_ImEEEEE8max_sizeB8ue170006Ev, symObjAddr: 0x2820, symBinAddr: 0x100003550, symSize: 0x20 }
  - { offsetInCU: 0x1065A, offset: 0x1065A, size: 0x8, addend: 0x0, symName: __ZNKSt3__117__compressed_pairIPNS_6vectorImNS_9allocatorImEEEENS2_IS4_EEE6secondB8ue170006Ev, symObjAddr: 0x2840, symBinAddr: 0x100003570, symSize: 0x20 }
  - { offsetInCU: 0x1067F, offset: 0x1067F, size: 0x8, addend: 0x0, symName: __ZNKSt3__122__compressed_pair_elemINS_9allocatorINS_6vectorImNS1_ImEEEEEELi1ELb1EE5__getB8ue170006Ev, symObjAddr: 0x2860, symBinAddr: 0x100003590, symSize: 0x10 }
  - { offsetInCU: 0x106A4, offset: 0x106A4, size: 0x8, addend: 0x0, symName: __ZNKSt3__16vectorINS0_ImNS_9allocatorImEEEENS1_IS3_EEE9__end_capB8ue170006Ev, symObjAddr: 0x2870, symBinAddr: 0x1000035A0, symSize: 0x20 }
  - { offsetInCU: 0x106C9, offset: 0x106C9, size: 0x8, addend: 0x0, symName: __ZNKSt3__117__compressed_pairIPNS_6vectorImNS_9allocatorImEEEENS2_IS4_EEE5firstB8ue170006Ev, symObjAddr: 0x2890, symBinAddr: 0x1000035C0, symSize: 0x20 }
  - { offsetInCU: 0x106EE, offset: 0x106EE, size: 0x8, addend: 0x0, symName: __ZNKSt3__122__compressed_pair_elemIPNS_6vectorImNS_9allocatorImEEEELi0ELb0EE5__getB8ue170006Ev, symObjAddr: 0x28B0, symBinAddr: 0x1000035E0, symSize: 0x10 }
  - { offsetInCU: 0x10713, offset: 0x10713, size: 0x8, addend: 0x0, symName: __ZNSt3__114__split_bufferINS_6vectorImNS_9allocatorImEEEERNS2_IS4_EEEC2EmmS6_, symObjAddr: 0x2910, symBinAddr: 0x100003640, symSize: 0xC0 }
  - { offsetInCU: 0x10785, offset: 0x10785, size: 0x8, addend: 0x0, symName: __ZNSt3__117__compressed_pairIPNS_6vectorImNS_9allocatorImEEEERNS2_IS4_EEEC1B8ue170006IDnS7_EEOT_OT0_, symObjAddr: 0x29D0, symBinAddr: 0x100003700, symSize: 0x30 }
  - { offsetInCU: 0x107DC, offset: 0x107DC, size: 0x8, addend: 0x0, symName: __ZNSt3__114__split_bufferINS_6vectorImNS_9allocatorImEEEERNS2_IS4_EEE7__allocB8ue170006Ev, symObjAddr: 0x2A40, symBinAddr: 0x100003770, symSize: 0x20 }
  - { offsetInCU: 0x10801, offset: 0x10801, size: 0x8, addend: 0x0, symName: __ZNSt3__114__split_bufferINS_6vectorImNS_9allocatorImEEEERNS2_IS4_EEE9__end_capB8ue170006Ev, symObjAddr: 0x2A60, symBinAddr: 0x100003790, symSize: 0x20 }
  - { offsetInCU: 0x10826, offset: 0x10826, size: 0x8, addend: 0x0, symName: __ZNSt3__117__compressed_pairIPNS_6vectorImNS_9allocatorImEEEERNS2_IS4_EEEC2B8ue170006IDnS7_EEOT_OT0_, symObjAddr: 0x2A80, symBinAddr: 0x1000037B0, symSize: 0x40 }
  - { offsetInCU: 0x1087D, offset: 0x1087D, size: 0x8, addend: 0x0, symName: __ZNSt3__122__compressed_pair_elemIPNS_6vectorImNS_9allocatorImEEEELi0ELb0EEC2B8ue170006IDnvEEOT_, symObjAddr: 0x2AC0, symBinAddr: 0x1000037F0, symSize: 0x20 }
  - { offsetInCU: 0x108BE, offset: 0x108BE, size: 0x8, addend: 0x0, symName: __ZNSt3__122__compressed_pair_elemIRNS_9allocatorINS_6vectorImNS1_ImEEEEEELi1ELb0EEC2B8ue170006IS6_vEEOT_, symObjAddr: 0x2AE0, symBinAddr: 0x100003810, symSize: 0x20 }
  - { offsetInCU: 0x108FF, offset: 0x108FF, size: 0x8, addend: 0x0, symName: __ZNSt3__19allocatorINS_6vectorImNS0_ImEEEEE8allocateB8ue170006Em, symObjAddr: 0x2B00, symBinAddr: 0x100003830, symSize: 0x50 }
  - { offsetInCU: 0x10932, offset: 0x10932, size: 0x8, addend: 0x0, symName: __ZNSt3__117__compressed_pairIPNS_6vectorImNS_9allocatorImEEEERNS2_IS4_EEE6secondB8ue170006Ev, symObjAddr: 0x2B50, symBinAddr: 0x100003880, symSize: 0x20 }
  - { offsetInCU: 0x10957, offset: 0x10957, size: 0x8, addend: 0x0, symName: __ZNSt3__122__compressed_pair_elemIRNS_9allocatorINS_6vectorImNS1_ImEEEEEELi1ELb0EE5__getB8ue170006Ev, symObjAddr: 0x2B70, symBinAddr: 0x1000038A0, symSize: 0x20 }
  - { offsetInCU: 0x1097C, offset: 0x1097C, size: 0x8, addend: 0x0, symName: __ZNSt3__117__compressed_pairIPNS_6vectorImNS_9allocatorImEEEERNS2_IS4_EEE5firstB8ue170006Ev, symObjAddr: 0x2B90, symBinAddr: 0x1000038C0, symSize: 0x20 }
  - { offsetInCU: 0x109AB, offset: 0x109AB, size: 0x8, addend: 0x0, symName: __ZNSt3__114__split_bufferINS_6vectorImNS_9allocatorImEEEERNS2_IS4_EEE21_ConstructTransactionC1B8ue170006EPPS4_m, symObjAddr: 0x2BB0, symBinAddr: 0x1000038E0, symSize: 0x30 }
  - { offsetInCU: 0x109F0, offset: 0x109F0, size: 0x8, addend: 0x0, symName: __ZNSt3__114__split_bufferINS_6vectorImNS_9allocatorImEEEERNS2_IS4_EEE21_ConstructTransactionD1B8ue170006Ev, symObjAddr: 0x2BE0, symBinAddr: 0x100003910, symSize: 0x20 }
  - { offsetInCU: 0x10A19, offset: 0x10A19, size: 0x8, addend: 0x0, symName: __ZNSt3__114__split_bufferINS_6vectorImNS_9allocatorImEEEERNS2_IS4_EEE21_ConstructTransactionC2B8ue170006EPPS4_m, symObjAddr: 0x2C00, symBinAddr: 0x100003930, symSize: 0x40 }
  - { offsetInCU: 0x10A5E, offset: 0x10A5E, size: 0x8, addend: 0x0, symName: __ZNSt3__114__split_bufferINS_6vectorImNS_9allocatorImEEEERNS2_IS4_EEE21_ConstructTransactionD2B8ue170006Ev, symObjAddr: 0x2C40, symBinAddr: 0x100003970, symSize: 0x20 }
  - { offsetInCU: 0x10A87, offset: 0x10A87, size: 0x8, addend: 0x0, symName: __ZNKSt3__16vectorINS0_ImNS_9allocatorImEEEENS1_IS3_EEE17__annotate_deleteB8ue170006Ev, symObjAddr: 0x2C60, symBinAddr: 0x100003990, symSize: 0xB0 }
  - { offsetInCU: 0x10AAC, offset: 0x10AAC, size: 0x8, addend: 0x0, symName: __ZNSt3__116reverse_iteratorIPNS_6vectorImNS_9allocatorImEEEEEC1B8ue170006ES5_, symObjAddr: 0x2E90, symBinAddr: 0x100003BC0, symSize: 0x30 }
  - { offsetInCU: 0x10AE3, offset: 0x10AE3, size: 0x8, addend: 0x0, symName: __ZNKSt3__116reverse_iteratorIPNS_6vectorImNS_9allocatorImEEEEE4baseB8ue170006Ev, symObjAddr: 0x2EC0, symBinAddr: 0x100003BF0, symSize: 0x20 }
  - { offsetInCU: 0x10B08, offset: 0x10B08, size: 0x8, addend: 0x0, symName: __ZNKSt3__16vectorINS0_ImNS_9allocatorImEEEENS1_IS3_EEE14__annotate_newB8ue170006Em, symObjAddr: 0x2F20, symBinAddr: 0x100003C50, symSize: 0xA0 }
  - { offsetInCU: 0x10B3C, offset: 0x10B3C, size: 0x8, addend: 0x0, symName: __ZNKSt3__16vectorINS0_ImNS_9allocatorImEEEENS1_IS3_EEE31__annotate_contiguous_containerB8ue170006EPKvS7_S7_S7_, symObjAddr: 0x2FC0, symBinAddr: 0x100003CF0, symSize: 0x20 }
  - { offsetInCU: 0x10B8D, offset: 0x10B8D, size: 0x8, addend: 0x0, symName: __ZNKSt3__16vectorINS0_ImNS_9allocatorImEEEENS1_IS3_EEE4dataB8ue170006Ev, symObjAddr: 0x2FE0, symBinAddr: 0x100003D10, symSize: 0x20 }
  - { offsetInCU: 0x10BB2, offset: 0x10BB2, size: 0x8, addend: 0x0, symName: __ZNSt3__129_AllocatorDestroyRangeReverseINS_9allocatorINS_6vectorImNS1_ImEEEEEENS_16reverse_iteratorIPS4_EEEC1B8ue170006ERS5_RS8_SB_, symObjAddr: 0x3060, symBinAddr: 0x100003D90, symSize: 0x40 }
  - { offsetInCU: 0x10C08, offset: 0x10C08, size: 0x8, addend: 0x0, symName: __ZNSt3__116allocator_traitsINS_9allocatorINS_6vectorImNS1_ImEEEEEEE9constructB8ue170006IS4_JS4_EvEEvRS5_PT_DpOT0_, symObjAddr: 0x30E0, symBinAddr: 0x100003E10, symSize: 0x30 }
  - { offsetInCU: 0x10C5F, offset: 0x10C5F, size: 0x8, addend: 0x0, symName: __ZNKSt3__116reverse_iteratorIPNS_6vectorImNS_9allocatorImEEEEEdeB8ue170006Ev, symObjAddr: 0x3130, symBinAddr: 0x100003E60, symSize: 0x30 }
  - { offsetInCU: 0x10C92, offset: 0x10C92, size: 0x8, addend: 0x0, symName: __ZNSt3__116reverse_iteratorIPNS_6vectorImNS_9allocatorImEEEEEppB8ue170006Ev, symObjAddr: 0x3160, symBinAddr: 0x100003E90, symSize: 0x20 }
  - { offsetInCU: 0x10CB7, offset: 0x10CB7, size: 0x8, addend: 0x0, symName: __ZNSt3__128__exception_guard_exceptionsINS_29_AllocatorDestroyRangeReverseINS_9allocatorINS_6vectorImNS2_ImEEEEEENS_16reverse_iteratorIPS5_EEEEE10__completeB8ue170006Ev, symObjAddr: 0x3180, symBinAddr: 0x100003EB0, symSize: 0x20 }
  - { offsetInCU: 0x10CDC, offset: 0x10CDC, size: 0x8, addend: 0x0, symName: __ZNSt3__128__exception_guard_exceptionsINS_29_AllocatorDestroyRangeReverseINS_9allocatorINS_6vectorImNS2_ImEEEEEENS_16reverse_iteratorIPS5_EEEEED1B8ue170006Ev, symObjAddr: 0x31A0, symBinAddr: 0x100003ED0, symSize: 0x20 }
  - { offsetInCU: 0x10D05, offset: 0x10D05, size: 0x8, addend: 0x0, symName: __ZNSt3__128__exception_guard_exceptionsINS_29_AllocatorDestroyRangeReverseINS_9allocatorINS_6vectorImNS2_ImEEEEEENS_16reverse_iteratorIPS5_EEEEEC1B8ue170006ESA_, symObjAddr: 0x31C0, symBinAddr: 0x100003EF0, symSize: 0x40 }
  - { offsetInCU: 0x10D3C, offset: 0x10D3C, size: 0x8, addend: 0x0, symName: __ZNSt3__128__exception_guard_exceptionsINS_29_AllocatorDestroyRangeReverseINS_9allocatorINS_6vectorImNS2_ImEEEEEENS_16reverse_iteratorIPS5_EEEEEC2B8ue170006ESA_, symObjAddr: 0x3200, symBinAddr: 0x100003F30, symSize: 0x30 }
  - { offsetInCU: 0x10D73, offset: 0x10D73, size: 0x8, addend: 0x0, symName: __ZNSt3__129_AllocatorDestroyRangeReverseINS_9allocatorINS_6vectorImNS1_ImEEEEEENS_16reverse_iteratorIPS4_EEEC2B8ue170006ERS5_RS8_SB_, symObjAddr: 0x3230, symBinAddr: 0x100003F60, symSize: 0x40 }
  - { offsetInCU: 0x10DC9, offset: 0x10DC9, size: 0x8, addend: 0x0, symName: __ZNSt3__19allocatorINS_6vectorImNS0_ImEEEEE9constructB8ue170006IS3_JS3_EEEvPT_DpOT0_, symObjAddr: 0x3270, symBinAddr: 0x100003FA0, symSize: 0x30 }
  - { offsetInCU: 0x10E1E, offset: 0x10E1E, size: 0x8, addend: 0x0, symName: __ZNSt3__16vectorImNS_9allocatorImEEEC1B8ue170006EOS3_, symObjAddr: 0x32A0, symBinAddr: 0x100003FD0, symSize: 0x30 }
  - { offsetInCU: 0x10E58, offset: 0x10E58, size: 0x8, addend: 0x0, symName: __ZNSt3__16vectorImNS_9allocatorImEEEC2B8ue170006EOS3_, symObjAddr: 0x32D0, symBinAddr: 0x100004000, symSize: 0xD0 }
  - { offsetInCU: 0x10E97, offset: 0x10E97, size: 0x8, addend: 0x0, symName: __ZNSt3__119__to_address_helperINS_16reverse_iteratorIPNS_6vectorImNS_9allocatorImEEEEEEvE6__callB8ue170006ERKS7_, symObjAddr: 0x33A0, symBinAddr: 0x1000040D0, symSize: 0x40 }
  - { offsetInCU: 0x10EBA, offset: 0x10EBA, size: 0x8, addend: 0x0, symName: __ZNKSt3__116reverse_iteratorIPNS_6vectorImNS_9allocatorImEEEEEptB8ue170006Ev, symObjAddr: 0x33E0, symBinAddr: 0x100004110, symSize: 0x20 }
  - { offsetInCU: 0x10EDF, offset: 0x10EDF, size: 0x8, addend: 0x0, symName: __ZNSt3__128__exception_guard_exceptionsINS_29_AllocatorDestroyRangeReverseINS_9allocatorINS_6vectorImNS2_ImEEEEEENS_16reverse_iteratorIPS5_EEEEED2B8ue170006Ev, symObjAddr: 0x3400, symBinAddr: 0x100004130, symSize: 0x40 }
  - { offsetInCU: 0x10F08, offset: 0x10F08, size: 0x8, addend: 0x0, symName: __ZNKSt3__129_AllocatorDestroyRangeReverseINS_9allocatorINS_6vectorImNS1_ImEEEEEENS_16reverse_iteratorIPS4_EEEclB8ue170006Ev, symObjAddr: 0x3440, symBinAddr: 0x100004170, symSize: 0xF0 }
  - { offsetInCU: 0x10F2E, offset: 0x10F2E, size: 0x8, addend: 0x0, symName: __ZNSt3__116reverse_iteratorINS0_IPNS_6vectorImNS_9allocatorImEEEEEEEC1B8ue170006ES6_, symObjAddr: 0x35A0, symBinAddr: 0x1000042D0, symSize: 0x30 }
  - { offsetInCU: 0x10F65, offset: 0x10F65, size: 0x8, addend: 0x0, symName: __ZNSt3__116allocator_traitsINS_9allocatorINS_6vectorImNS1_ImEEEEEEE7destroyB8ue170006IS4_vEEvRS5_PT_, symObjAddr: 0x3620, symBinAddr: 0x100004350, symSize: 0x30 }
  - { offsetInCU: 0x10FA2, offset: 0x10FA2, size: 0x8, addend: 0x0, symName: __ZNSt3__116reverse_iteratorINS0_IPNS_6vectorImNS_9allocatorImEEEEEEEppB8ue170006Ev, symObjAddr: 0x3670, symBinAddr: 0x1000043A0, symSize: 0x30 }
  - { offsetInCU: 0x10FC7, offset: 0x10FC7, size: 0x8, addend: 0x0, symName: __ZNKSt3__116reverse_iteratorINS0_IPNS_6vectorImNS_9allocatorImEEEEEEE4baseB8ue170006Ev, symObjAddr: 0x36A0, symBinAddr: 0x1000043D0, symSize: 0x20 }
  - { offsetInCU: 0x10FEC, offset: 0x10FEC, size: 0x8, addend: 0x0, symName: __ZNSt3__19allocatorINS_6vectorImNS0_ImEEEEE7destroyB8ue170006EPS3_, symObjAddr: 0x36C0, symBinAddr: 0x1000043F0, symSize: 0x20 }
  - { offsetInCU: 0x11024, offset: 0x11024, size: 0x8, addend: 0x0, symName: __ZNSt3__119__to_address_helperINS_16reverse_iteratorINS1_IPNS_6vectorImNS_9allocatorImEEEEEEEEvE6__callB8ue170006ERKS8_, symObjAddr: 0x36E0, symBinAddr: 0x100004410, symSize: 0x40 }
  - { offsetInCU: 0x11047, offset: 0x11047, size: 0x8, addend: 0x0, symName: __ZNKSt3__116reverse_iteratorINS0_IPNS_6vectorImNS_9allocatorImEEEEEEEptB8ue170006Ev, symObjAddr: 0x3720, symBinAddr: 0x100004450, symSize: 0x20 }
  - { offsetInCU: 0x1106C, offset: 0x1106C, size: 0x8, addend: 0x0, symName: __ZNKSt3__116reverse_iteratorINS0_IPNS_6vectorImNS_9allocatorImEEEEEEEdeB8ue170006Ev, symObjAddr: 0x3740, symBinAddr: 0x100004470, symSize: 0x40 }
  - { offsetInCU: 0x1109F, offset: 0x1109F, size: 0x8, addend: 0x0, symName: __ZNSt3__116reverse_iteratorIPNS_6vectorImNS_9allocatorImEEEEEmmB8ue170006Ev, symObjAddr: 0x3780, symBinAddr: 0x1000044B0, symSize: 0x20 }
  - { offsetInCU: 0x110C4, offset: 0x110C4, size: 0x8, addend: 0x0, symName: __ZNSt3__116reverse_iteratorINS0_IPNS_6vectorImNS_9allocatorImEEEEEEEC2B8ue170006ES6_, symObjAddr: 0x37A0, symBinAddr: 0x1000044D0, symSize: 0x40 }
  - { offsetInCU: 0x110FB, offset: 0x110FB, size: 0x8, addend: 0x0, symName: __ZNSt3__116reverse_iteratorIPNS_6vectorImNS_9allocatorImEEEEEC2B8ue170006ES5_, symObjAddr: 0x37E0, symBinAddr: 0x100004510, symSize: 0x30 }
  - { offsetInCU: 0x11132, offset: 0x11132, size: 0x8, addend: 0x0, symName: __ZNSt3__114__split_bufferINS_6vectorImNS_9allocatorImEEEERNS2_IS4_EEED2Ev, symObjAddr: 0x3810, symBinAddr: 0x100004540, symSize: 0x70 }
  - { offsetInCU: 0x1115D, offset: 0x1115D, size: 0x8, addend: 0x0, symName: __ZNSt3__114__split_bufferINS_6vectorImNS_9allocatorImEEEERNS2_IS4_EEE5clearB8ue170006Ev, symObjAddr: 0x3880, symBinAddr: 0x1000045B0, symSize: 0x20 }
  - { offsetInCU: 0x11182, offset: 0x11182, size: 0x8, addend: 0x0, symName: __ZNSt3__116allocator_traitsINS_9allocatorINS_6vectorImNS1_ImEEEEEEE10deallocateB8ue170006ERS5_PS4_m, symObjAddr: 0x38A0, symBinAddr: 0x1000045D0, symSize: 0x30 }
  - { offsetInCU: 0x111C4, offset: 0x111C4, size: 0x8, addend: 0x0, symName: __ZNKSt3__114__split_bufferINS_6vectorImNS_9allocatorImEEEERNS2_IS4_EEE8capacityB8ue170006Ev, symObjAddr: 0x38D0, symBinAddr: 0x100004600, symSize: 0x40 }
  - { offsetInCU: 0x111E9, offset: 0x111E9, size: 0x8, addend: 0x0, symName: __ZNSt3__114__split_bufferINS_6vectorImNS_9allocatorImEEEERNS2_IS4_EEE17__destruct_at_endB8ue170006EPS4_, symObjAddr: 0x3910, symBinAddr: 0x100004640, symSize: 0x30 }
  - { offsetInCU: 0x1121B, offset: 0x1121B, size: 0x8, addend: 0x0, symName: __ZNSt3__114__split_bufferINS_6vectorImNS_9allocatorImEEEERNS2_IS4_EEE17__destruct_at_endB8ue170006EPS4_NS_17integral_constantIbLb0EEE, symObjAddr: 0x3940, symBinAddr: 0x100004670, symSize: 0x80 }
  - { offsetInCU: 0x1125A, offset: 0x1125A, size: 0x8, addend: 0x0, symName: __ZNSt3__19allocatorINS_6vectorImNS0_ImEEEEE10deallocateB8ue170006EPS3_m, symObjAddr: 0x39C0, symBinAddr: 0x1000046F0, symSize: 0x50 }
  - { offsetInCU: 0x1129B, offset: 0x1129B, size: 0x8, addend: 0x0, symName: __ZNKSt3__114__split_bufferINS_6vectorImNS_9allocatorImEEEERNS2_IS4_EEE9__end_capB8ue170006Ev, symObjAddr: 0x3A10, symBinAddr: 0x100004740, symSize: 0x20 }
  - { offsetInCU: 0x112C0, offset: 0x112C0, size: 0x8, addend: 0x0, symName: __ZNKSt3__117__compressed_pairIPNS_6vectorImNS_9allocatorImEEEERNS2_IS4_EEE5firstB8ue170006Ev, symObjAddr: 0x3A30, symBinAddr: 0x100004760, symSize: 0x20 }
  - { offsetInCU: 0x112E5, offset: 0x112E5, size: 0x8, addend: 0x0, symName: __ZNSt3__16vectorINS0_ImNS_9allocatorImEEEENS1_IS3_EEE22__base_destruct_at_endB8ue170006EPS3_, symObjAddr: 0x3A50, symBinAddr: 0x100004780, symSize: 0x80 }
  - { offsetInCU: 0x11328, offset: 0x11328, size: 0x8, addend: 0x0, symName: __ZNKSt3__16vectorINS0_ImNS_9allocatorImEEEENS1_IS3_EEE17__annotate_shrinkB8ue170006Em, symObjAddr: 0x3AD0, symBinAddr: 0x100004800, symSize: 0xA0 }
  - { offsetInCU: 0x1135C, offset: 0x1135C, size: 0x8, addend: 0x0, symName: __ZNKSt3__16vectorIbNS_9allocatorIbEEE4sizeB8ue170006Ev, symObjAddr: 0x3B70, symBinAddr: 0x1000048A0, symSize: 0x20 }
  - { offsetInCU: 0x11381, offset: 0x11381, size: 0x8, addend: 0x0, symName: __ZNSt3__114__bit_iteratorINS_6vectorIbNS_9allocatorIbEEEELb0ELm0EEC1B8ue170006Ev, symObjAddr: 0x3B90, symBinAddr: 0x1000048C0, symSize: 0x20 }
  - { offsetInCU: 0x113AA, offset: 0x113AA, size: 0x8, addend: 0x0, symName: __ZNKSt3__16vectorIbNS_9allocatorIbEEE8capacityB8ue170006Ev, symObjAddr: 0x3BB0, symBinAddr: 0x1000048E0, symSize: 0x30 }
  - { offsetInCU: 0x113CF, offset: 0x113CF, size: 0x8, addend: 0x0, symName: __ZNSt3__16vectorIbNS_9allocatorIbEEE3endB8ue170006Ev, symObjAddr: 0x3BE0, symBinAddr: 0x100004910, symSize: 0x30 }
  - { offsetInCU: 0x113F4, offset: 0x113F4, size: 0x8, addend: 0x0, symName: __ZNSt3__114__bit_iteratorINS_6vectorIbNS_9allocatorIbEEEELb0ELm0EEaSB8ue170006ERKS5_, symObjAddr: 0x3C10, symBinAddr: 0x100004940, symSize: 0x30 }
  - { offsetInCU: 0x11428, offset: 0x11428, size: 0x8, addend: 0x0, symName: __ZNKSt3__16vectorIbNS_9allocatorIbEEE13get_allocatorB8ue170006Ev, symObjAddr: 0x3C40, symBinAddr: 0x100004970, symSize: 0x30 }
  - { offsetInCU: 0x1144D, offset: 0x1144D, size: 0x8, addend: 0x0, symName: __ZNSt3__16vectorIbNS_9allocatorIbEEEC1B8ue170006ERKS2_, symObjAddr: 0x3C70, symBinAddr: 0x1000049A0, symSize: 0x30 }
  - { offsetInCU: 0x11486, offset: 0x11486, size: 0x8, addend: 0x0, symName: __ZNSt3__16vectorIbNS_9allocatorIbEEE7reserveEm, symObjAddr: 0x3CA0, symBinAddr: 0x1000049D0, symSize: 0x130 }
  - { offsetInCU: 0x114D0, offset: 0x114D0, size: 0x8, addend: 0x0, symName: __ZNKSt3__16vectorIbNS_9allocatorIbEEE11__recommendB8ue170006Em, symObjAddr: 0x3DD0, symBinAddr: 0x100004B00, symSize: 0xA0 }
  - { offsetInCU: 0x11524, offset: 0x11524, size: 0x8, addend: 0x0, symName: __ZNKSt3__16vectorIbNS_9allocatorIbEEE6cbeginB8ue170006Ev, symObjAddr: 0x3F70, symBinAddr: 0x100004CA0, symSize: 0x30 }
  - { offsetInCU: 0x11549, offset: 0x11549, size: 0x8, addend: 0x0, symName: __ZNKSt3__16vectorIbNS_9allocatorIbEEE4cendB8ue170006Ev, symObjAddr: 0x3FA0, symBinAddr: 0x100004CD0, symSize: 0x30 }
  - { offsetInCU: 0x1156E, offset: 0x1156E, size: 0x8, addend: 0x0, symName: __ZNSt3__16vectorIbNS_9allocatorIbEEE5beginB8ue170006Ev, symObjAddr: 0x3FD0, symBinAddr: 0x100004D00, symSize: 0x30 }
  - { offsetInCU: 0x11592, offset: 0x11592, size: 0x8, addend: 0x0, symName: __ZNSt3__16vectorIbNS_9allocatorIbEEE4swapERS3_, symObjAddr: 0x4000, symBinAddr: 0x100004D30, symSize: 0x80 }
  - { offsetInCU: 0x115C8, offset: 0x115C8, size: 0x8, addend: 0x0, symName: __ZNSt3__16vectorIbNS_9allocatorIbEEED1B8ue170006Ev, symObjAddr: 0x4080, symBinAddr: 0x100004DB0, symSize: 0x20 }
  - { offsetInCU: 0x115F1, offset: 0x115F1, size: 0x8, addend: 0x0, symName: __ZNSt3__114__bit_iteratorINS_6vectorIbNS_9allocatorIbEEEELb0ELm0EEC1B8ue170006ERKS5_, symObjAddr: 0x4120, symBinAddr: 0x100004E50, symSize: 0x30 }
  - { offsetInCU: 0x11629, offset: 0x11629, size: 0x8, addend: 0x0, symName: __ZNSt3__114__bit_iteratorINS_6vectorIbNS_9allocatorIbEEEELb0ELm0EEC2B8ue170006Ev, symObjAddr: 0x4150, symBinAddr: 0x100004E80, symSize: 0x10 }
  - { offsetInCU: 0x11652, offset: 0x11652, size: 0x8, addend: 0x0, symName: __ZNSt3__16vectorIbNS_9allocatorIbEEE26__internal_cap_to_externalB8ue170006Em, symObjAddr: 0x4160, symBinAddr: 0x100004E90, symSize: 0x20 }
  - { offsetInCU: 0x11676, offset: 0x11676, size: 0x8, addend: 0x0, symName: __ZNKSt3__16vectorIbNS_9allocatorIbEEE5__capB8ue170006Ev, symObjAddr: 0x4180, symBinAddr: 0x100004EB0, symSize: 0x20 }
  - { offsetInCU: 0x1169B, offset: 0x1169B, size: 0x8, addend: 0x0, symName: __ZNKSt3__117__compressed_pairImNS_9allocatorImEEE5firstB8ue170006Ev, symObjAddr: 0x41A0, symBinAddr: 0x100004ED0, symSize: 0x20 }
  - { offsetInCU: 0x116C0, offset: 0x116C0, size: 0x8, addend: 0x0, symName: __ZNKSt3__122__compressed_pair_elemImLi0ELb0EE5__getB8ue170006Ev, symObjAddr: 0x41C0, symBinAddr: 0x100004EF0, symSize: 0x10 }
  - { offsetInCU: 0x116E5, offset: 0x116E5, size: 0x8, addend: 0x0, symName: __ZNSt3__16vectorIbNS_9allocatorIbEEE11__make_iterB8ue170006Em, symObjAddr: 0x41D0, symBinAddr: 0x100004F00, symSize: 0x50 }
  - { offsetInCU: 0x11719, offset: 0x11719, size: 0x8, addend: 0x0, symName: __ZNSt3__114__bit_iteratorINS_6vectorIbNS_9allocatorIbEEEELb0ELm0EEC1B8ue170006EPmj, symObjAddr: 0x4220, symBinAddr: 0x100004F50, symSize: 0x30 }
  - { offsetInCU: 0x11760, offset: 0x11760, size: 0x8, addend: 0x0, symName: __ZNSt3__114__bit_iteratorINS_6vectorIbNS_9allocatorIbEEEELb0ELm0EEC2B8ue170006EPmj, symObjAddr: 0x4250, symBinAddr: 0x100004F80, symSize: 0x30 }
  - { offsetInCU: 0x117A7, offset: 0x117A7, size: 0x8, addend: 0x0, symName: __ZNKSt3__16vectorIbNS_9allocatorIbEEE7__allocB8ue170006Ev, symObjAddr: 0x4280, symBinAddr: 0x100004FB0, symSize: 0x20 }
  - { offsetInCU: 0x117CC, offset: 0x117CC, size: 0x8, addend: 0x0, symName: __ZNSt3__19allocatorIbEC1B8ue170006ImEERKNS0_IT_EE, symObjAddr: 0x42A0, symBinAddr: 0x100004FD0, symSize: 0x30 }
  - { offsetInCU: 0x11808, offset: 0x11808, size: 0x8, addend: 0x0, symName: __ZNKSt3__117__compressed_pairImNS_9allocatorImEEE6secondB8ue170006Ev, symObjAddr: 0x42D0, symBinAddr: 0x100005000, symSize: 0x20 }
  - { offsetInCU: 0x1182D, offset: 0x1182D, size: 0x8, addend: 0x0, symName: __ZNSt3__19allocatorIbEC2B8ue170006ImEERKNS0_IT_EE, symObjAddr: 0x42F0, symBinAddr: 0x100005020, symSize: 0x20 }
  - { offsetInCU: 0x11869, offset: 0x11869, size: 0x8, addend: 0x0, symName: __ZNSt3__116__non_trivial_ifILb1ENS_9allocatorIbEEEC2B8ue170006Ev, symObjAddr: 0x4310, symBinAddr: 0x100005040, symSize: 0x10 }
  - { offsetInCU: 0x11892, offset: 0x11892, size: 0x8, addend: 0x0, symName: __ZNSt3__16vectorIbNS_9allocatorIbEEEC2B8ue170006ERKS2_, symObjAddr: 0x4320, symBinAddr: 0x100005050, symSize: 0x70 }
  - { offsetInCU: 0x118D1, offset: 0x118D1, size: 0x8, addend: 0x0, symName: __ZNSt3__19allocatorImEC1B8ue170006IbEERKNS0_IT_EE, symObjAddr: 0x4390, symBinAddr: 0x1000050C0, symSize: 0x30 }
  - { offsetInCU: 0x11912, offset: 0x11912, size: 0x8, addend: 0x0, symName: __ZNSt3__117__compressed_pairImNS_9allocatorImEEEC1B8ue170006IiS2_EEOT_OT0_, symObjAddr: 0x43C0, symBinAddr: 0x1000050F0, symSize: 0x30 }
  - { offsetInCU: 0x11969, offset: 0x11969, size: 0x8, addend: 0x0, symName: __ZNSt3__19allocatorImEC2B8ue170006IbEERKNS0_IT_EE, symObjAddr: 0x43F0, symBinAddr: 0x100005120, symSize: 0x20 }
  - { offsetInCU: 0x119A5, offset: 0x119A5, size: 0x8, addend: 0x0, symName: __ZNSt3__117__compressed_pairImNS_9allocatorImEEEC2B8ue170006IiS2_EEOT_OT0_, symObjAddr: 0x4410, symBinAddr: 0x100005140, symSize: 0x40 }
  - { offsetInCU: 0x119FC, offset: 0x119FC, size: 0x8, addend: 0x0, symName: __ZNSt3__122__compressed_pair_elemImLi0ELb0EEC2B8ue170006IivEEOT_, symObjAddr: 0x4450, symBinAddr: 0x100005180, symSize: 0x20 }
  - { offsetInCU: 0x11A3C, offset: 0x11A3C, size: 0x8, addend: 0x0, symName: __ZNKSt3__16vectorIbNS_9allocatorIbEEE8max_sizeEv, symObjAddr: 0x4470, symBinAddr: 0x1000051A0, symSize: 0x70 }
  - { offsetInCU: 0x11A81, offset: 0x11A81, size: 0x8, addend: 0x0, symName: __ZNKSt3__16vectorIbNS_9allocatorIbEEE20__throw_length_errorB8ue170006Ev, symObjAddr: 0x44E0, symBinAddr: 0x100005210, symSize: 0x20 }
  - { offsetInCU: 0x11AA6, offset: 0x11AA6, size: 0x8, addend: 0x0, symName: __ZNSt3__16vectorIbNS_9allocatorIbEEE11__vallocateB8ue170006Em, symObjAddr: 0x4500, symBinAddr: 0x100005230, symSize: 0xA0 }
  - { offsetInCU: 0x11AE8, offset: 0x11AE8, size: 0x8, addend: 0x0, symName: __ZNSt3__16vectorIbNS_9allocatorIbEEE18__construct_at_endINS_14__bit_iteratorIS3_Lb0ELm0EEES6_EEvT_T0_m, symObjAddr: 0x45A0, symBinAddr: 0x1000052D0, symSize: 0x110 }
  - { offsetInCU: 0x11B5F, offset: 0x11B5F, size: 0x8, addend: 0x0, symName: __ZNSt3__114numeric_limitsImE3maxB8ue170006Ev, symObjAddr: 0x46B0, symBinAddr: 0x1000053E0, symSize: 0x10 }
  - { offsetInCU: 0x11B73, offset: 0x11B73, size: 0x8, addend: 0x0, symName: __ZNSt3__123__libcpp_numeric_limitsImLb1EE3maxB8ue170006Ev, symObjAddr: 0x46C0, symBinAddr: 0x1000053F0, symSize: 0x10 }
  - { offsetInCU: 0x11B87, offset: 0x11B87, size: 0x8, addend: 0x0, symName: __ZNSt3__16vectorIbNS_9allocatorIbEEE7__allocB8ue170006Ev, symObjAddr: 0x46D0, symBinAddr: 0x100005400, symSize: 0x20 }
  - { offsetInCU: 0x11BAC, offset: 0x11BAC, size: 0x8, addend: 0x0, symName: __ZNSt3__16vectorIbNS_9allocatorIbEEE26__external_cap_to_internalB8ue170006Em, symObjAddr: 0x46F0, symBinAddr: 0x100005420, symSize: 0x20 }
  - { offsetInCU: 0x11BD0, offset: 0x11BD0, size: 0x8, addend: 0x0, symName: __ZNSt3__16vectorIbNS_9allocatorIbEEE5__capB8ue170006Ev, symObjAddr: 0x4710, symBinAddr: 0x100005440, symSize: 0x20 }
  - { offsetInCU: 0x11BF5, offset: 0x11BF5, size: 0x8, addend: 0x0, symName: __ZNSt3__117__compressed_pairImNS_9allocatorImEEE6secondB8ue170006Ev, symObjAddr: 0x4730, symBinAddr: 0x100005460, symSize: 0x20 }
  - { offsetInCU: 0x11C1A, offset: 0x11C1A, size: 0x8, addend: 0x0, symName: __ZNSt3__117__compressed_pairImNS_9allocatorImEEE5firstB8ue170006Ev, symObjAddr: 0x4750, symBinAddr: 0x100005480, symSize: 0x20 }
  - { offsetInCU: 0x11C3F, offset: 0x11C3F, size: 0x8, addend: 0x0, symName: __ZNSt3__122__compressed_pair_elemImLi0ELb0EE5__getB8ue170006Ev, symObjAddr: 0x4770, symBinAddr: 0x1000054A0, symSize: 0x10 }
  - { offsetInCU: 0x11C87, offset: 0x11C87, size: 0x8, addend: 0x0, symName: __ZNKSt3__111__copy_loopINS_17_ClassicAlgPolicyEEclB8ue170006INS_14__bit_iteratorINS_6vectorIbNS_9allocatorIbEEEELb0ELm0EEES9_S9_EENS_4pairIT_T1_EESB_T0_SC_, symObjAddr: 0x4A60, symBinAddr: 0x100005790, symSize: 0xB0 }
  - { offsetInCU: 0x11CF4, offset: 0x11CF4, size: 0x8, addend: 0x0, symName: __ZNKSt3__114__bit_iteratorINS_6vectorIbNS_9allocatorIbEEEELb0ELm0EEdeB8ue170006Ev, symObjAddr: 0x4C90, symBinAddr: 0x1000059C0, symSize: 0x40 }
  - { offsetInCU: 0x11D19, offset: 0x11D19, size: 0x8, addend: 0x0, symName: __ZNSt3__115__bit_referenceINS_6vectorIbNS_9allocatorIbEEEELb1EEaSB8ue170006ERKS5_, symObjAddr: 0x4CD0, symBinAddr: 0x100005A00, symSize: 0x40 }
  - { offsetInCU: 0x11D4C, offset: 0x11D4C, size: 0x8, addend: 0x0, symName: __ZNSt3__114__bit_iteratorINS_6vectorIbNS_9allocatorIbEEEELb0ELm0EEppB8ue170006Ev, symObjAddr: 0x4D10, symBinAddr: 0x100005A40, symSize: 0x50 }
  - { offsetInCU: 0x11D71, offset: 0x11D71, size: 0x8, addend: 0x0, symName: __ZNSt3__115__bit_referenceINS_6vectorIbNS_9allocatorIbEEEELb1EEC1B8ue170006EPmm, symObjAddr: 0x4DB0, symBinAddr: 0x100005AE0, symSize: 0x30 }
  - { offsetInCU: 0x11DB6, offset: 0x11DB6, size: 0x8, addend: 0x0, symName: __ZNSt3__115__bit_referenceINS_6vectorIbNS_9allocatorIbEEEELb1EEC2B8ue170006EPmm, symObjAddr: 0x4DE0, symBinAddr: 0x100005B10, symSize: 0x30 }
  - { offsetInCU: 0x11DFB, offset: 0x11DFB, size: 0x8, addend: 0x0, symName: __ZNKSt3__115__bit_referenceINS_6vectorIbNS_9allocatorIbEEEELb1EEcvbB8ue170006Ev, symObjAddr: 0x4E10, symBinAddr: 0x100005B40, symSize: 0x30 }
  - { offsetInCU: 0x11E20, offset: 0x11E20, size: 0x8, addend: 0x0, symName: __ZNSt3__118__unwrap_iter_implINS_14__bit_iteratorINS_6vectorIbNS_9allocatorIbEEEELb0ELm0EEELb0EE8__unwrapB8ue170006ES6_, symObjAddr: 0x4E40, symBinAddr: 0x100005B70, symSize: 0x30 }
  - { offsetInCU: 0x11E49, offset: 0x11E49, size: 0x8, addend: 0x0, symName: __ZNSt3__14pairINS_14__bit_iteratorINS_6vectorIbNS_9allocatorIbEEEELb0ELm0EEES6_EC1B8ue170006IS6_S6_LPv0EEEOT_OT0_, symObjAddr: 0x4E70, symBinAddr: 0x100005BA0, symSize: 0x30 }
  - { offsetInCU: 0x11EA6, offset: 0x11EA6, size: 0x8, addend: 0x0, symName: __ZNSt3__14pairINS_14__bit_iteratorINS_6vectorIbNS_9allocatorIbEEEELb0ELm0EEES6_EC2B8ue170006IS6_S6_LPv0EEEOT_OT0_, symObjAddr: 0x4EA0, symBinAddr: 0x100005BD0, symSize: 0x40 }
  - { offsetInCU: 0x11F03, offset: 0x11F03, size: 0x8, addend: 0x0, symName: __ZNSt3__118__unwrap_iter_implINS_14__bit_iteratorINS_6vectorIbNS_9allocatorIbEEEELb0ELm0EEELb0EE8__rewrapB8ue170006ES6_S6_, symObjAddr: 0x4EE0, symBinAddr: 0x100005C10, symSize: 0x40 }
  - { offsetInCU: 0x11F32, offset: 0x11F32, size: 0x8, addend: 0x0, symName: __ZNSt3__16vectorIbNS_9allocatorIbEEE10__align_itB8ue170006Em, symObjAddr: 0x4F20, symBinAddr: 0x100005C50, symSize: 0x20 }
  - { offsetInCU: 0x11F60, offset: 0x11F60, size: 0x8, addend: 0x0, symName: __ZNKSt3__16__lessIvvEclB8ue170006IllEEbRKT_RKT0_, symObjAddr: 0x5780, symBinAddr: 0x1000064B0, symSize: 0x30 }
  - { offsetInCU: 0x11FCC, offset: 0x11FCC, size: 0x8, addend: 0x0, symName: __ZNKSt3__114__copy_trivialclB8ue170006IKmmLi0EEENS_4pairIPT_PT0_EES5_S5_S7_, symObjAddr: 0x5970, symBinAddr: 0x1000066A0, symSize: 0x40 }
  - { offsetInCU: 0x12051, offset: 0x12051, size: 0x8, addend: 0x0, symName: __ZNSt3__14pairIPKmS2_EC1B8ue170006IS2_S2_LPv0EEEOT_OT0_, symObjAddr: 0x5A60, symBinAddr: 0x100006790, symSize: 0x30 }
  - { offsetInCU: 0x120AE, offset: 0x120AE, size: 0x8, addend: 0x0, symName: __ZNSt3__14pairIPKmS2_EC2B8ue170006IS2_S2_LPv0EEEOT_OT0_, symObjAddr: 0x5A90, symBinAddr: 0x1000067C0, symSize: 0x30 }
  - { offsetInCU: 0x1210B, offset: 0x1210B, size: 0x8, addend: 0x0, symName: __ZNSt3__118__unwrap_iter_implIPKmLb1EE8__unwrapB8ue170006ES2_, symObjAddr: 0x5AC0, symBinAddr: 0x1000067F0, symSize: 0x20 }
  - { offsetInCU: 0x12133, offset: 0x12133, size: 0x8, addend: 0x0, symName: __ZNSt3__14pairIPKmPmEC1B8ue170006IRS2_S3_LPv0EEEOT_OT0_, symObjAddr: 0x5BD0, symBinAddr: 0x100006900, symSize: 0x30 }
  - { offsetInCU: 0x12190, offset: 0x12190, size: 0x8, addend: 0x0, symName: __ZNSt3__14pairIPKmPmEC2B8ue170006IRS2_S3_LPv0EEEOT_OT0_, symObjAddr: 0x5C00, symBinAddr: 0x100006930, symSize: 0x30 }
  - { offsetInCU: 0x121ED, offset: 0x121ED, size: 0x8, addend: 0x0, symName: __ZNSt3__14pairIPKmPmEC1B8ue170006IS2_S3_LPv0EEEOT_OT0_, symObjAddr: 0x5C30, symBinAddr: 0x100006960, symSize: 0x30 }
  - { offsetInCU: 0x1224A, offset: 0x1224A, size: 0x8, addend: 0x0, symName: __ZNSt3__14pairIPKmPmEC2B8ue170006IS2_S3_LPv0EEEOT_OT0_, symObjAddr: 0x5C60, symBinAddr: 0x100006990, symSize: 0x30 }
  - { offsetInCU: 0x122A7, offset: 0x122A7, size: 0x8, addend: 0x0, symName: __ZNSt3__118__unwrap_iter_implIPKmLb1EE8__rewrapB8ue170006ES2_S2_, symObjAddr: 0x5CD0, symBinAddr: 0x100006A00, symSize: 0x50 }
  - { offsetInCU: 0x122D8, offset: 0x122D8, size: 0x8, addend: 0x0, symName: __ZNKSt3__16vectorIbNS_9allocatorIbEEE11__make_iterB8ue170006Em, symObjAddr: 0x5D20, symBinAddr: 0x100006A50, symSize: 0x50 }
  - { offsetInCU: 0x1230C, offset: 0x1230C, size: 0x8, addend: 0x0, symName: __ZNSt3__114__bit_iteratorINS_6vectorIbNS_9allocatorIbEEEELb1ELm0EEC1B8ue170006EPKmj, symObjAddr: 0x5D70, symBinAddr: 0x100006AA0, symSize: 0x30 }
  - { offsetInCU: 0x12353, offset: 0x12353, size: 0x8, addend: 0x0, symName: __ZNSt3__114__bit_iteratorINS_6vectorIbNS_9allocatorIbEEEELb1ELm0EEC2B8ue170006EPKmj, symObjAddr: 0x5DA0, symBinAddr: 0x100006AD0, symSize: 0x30 }
  - { offsetInCU: 0x1239A, offset: 0x1239A, size: 0x8, addend: 0x0, symName: __ZNSt3__16vectorIbNS_9allocatorIbEEED2B8ue170006Ev, symObjAddr: 0x5E60, symBinAddr: 0x100006B90, symSize: 0x40 }
  - { offsetInCU: 0x123C3, offset: 0x123C3, size: 0x8, addend: 0x0, symName: __ZNSt3__16vectorIbNS_9allocatorIbEEE16__destroy_vectorC1B8ue170006ERS3_, symObjAddr: 0x5EA0, symBinAddr: 0x100006BD0, symSize: 0x30 }
  - { offsetInCU: 0x123FB, offset: 0x123FB, size: 0x8, addend: 0x0, symName: __ZNSt3__16vectorIbNS_9allocatorIbEEE16__destroy_vectorclB8ue170006Ev, symObjAddr: 0x5ED0, symBinAddr: 0x100006C00, symSize: 0x60 }
  - { offsetInCU: 0x12420, offset: 0x12420, size: 0x8, addend: 0x0, symName: __ZNSt3__16vectorIbNS_9allocatorIbEEE16__destroy_vectorC2B8ue170006ERS3_, symObjAddr: 0x5F30, symBinAddr: 0x100006C60, symSize: 0x20 }
  - { offsetInCU: 0x12458, offset: 0x12458, size: 0x8, addend: 0x0, symName: __ZNSt3__114__bit_iteratorINS_6vectorIbNS_9allocatorIbEEEELb0ELm0EEC2B8ue170006ERKS5_, symObjAddr: 0x6300, symBinAddr: 0x100007030, symSize: 0x30 }
  - { offsetInCU: 0x12490, offset: 0x12490, size: 0x8, addend: 0x0, symName: __ZNSt3__16vectorIbNS_9allocatorIbEEE10__make_refB8ue170006Em, symObjAddr: 0x6330, symBinAddr: 0x100007060, symSize: 0x50 }
  - { offsetInCU: 0x124C4, offset: 0x124C4, size: 0x8, addend: 0x0, symName: __ZNKSt3__16vectorIbNS_9allocatorIbEEE10__make_refB8ue170006Em, symObjAddr: 0x6380, symBinAddr: 0x1000070B0, symSize: 0x50 }
  - { offsetInCU: 0x124F8, offset: 0x124F8, size: 0x8, addend: 0x0, symName: __ZNSt3__121__bit_const_referenceINS_6vectorIbNS_9allocatorIbEEEEEC1B8ue170006EPKmm, symObjAddr: 0x63D0, symBinAddr: 0x100007100, symSize: 0x30 }
  - { offsetInCU: 0x1253D, offset: 0x1253D, size: 0x8, addend: 0x0, symName: __ZNSt3__121__bit_const_referenceINS_6vectorIbNS_9allocatorIbEEEEEC2B8ue170006EPKmm, symObjAddr: 0x6400, symBinAddr: 0x100007130, symSize: 0x30 }
  - { offsetInCU: 0x12582, offset: 0x12582, size: 0x8, addend: 0x0, symName: __ZNSt3__111char_traitsIcE6lengthB8ue170006EPKc, symObjAddr: 0x6620, symBinAddr: 0x100007350, symSize: 0x30 }
  - { offsetInCU: 0x125C3, offset: 0x125C3, size: 0x8, addend: 0x0, symName: __ZNKSt3__113basic_ostreamIcNS_11char_traitsIcEEE6sentrycvbB8ue170006Ev, symObjAddr: 0x6650, symBinAddr: 0x100007380, symSize: 0x20 }
  - { offsetInCU: 0x125E8, offset: 0x125E8, size: 0x8, addend: 0x0, symName: __ZNSt3__119ostreambuf_iteratorIcNS_11char_traitsIcEEEC1B8ue170006ERNS_13basic_ostreamIcS2_EE, symObjAddr: 0x6890, symBinAddr: 0x1000075C0, symSize: 0x30 }
  - { offsetInCU: 0x1261E, offset: 0x1261E, size: 0x8, addend: 0x0, symName: __ZNKSt3__18ios_base5flagsB8ue170006Ev, symObjAddr: 0x68C0, symBinAddr: 0x1000075F0, symSize: 0x20 }
  - { offsetInCU: 0x12644, offset: 0x12644, size: 0x8, addend: 0x0, symName: __ZNKSt3__19basic_iosIcNS_11char_traitsIcEEE4fillB8ue170006Ev, symObjAddr: 0x68E0, symBinAddr: 0x100007610, symSize: 0x70 }
  - { offsetInCU: 0x1266B, offset: 0x1266B, size: 0x8, addend: 0x0, symName: __ZNKSt3__119ostreambuf_iteratorIcNS_11char_traitsIcEEE6failedB8ue170006Ev, symObjAddr: 0x6950, symBinAddr: 0x100007680, symSize: 0x20 }
  - { offsetInCU: 0x12690, offset: 0x12690, size: 0x8, addend: 0x0, symName: __ZNSt3__19basic_iosIcNS_11char_traitsIcEEE8setstateB8ue170006Ej, symObjAddr: 0x6970, symBinAddr: 0x1000076A0, symSize: 0x30 }
  - { offsetInCU: 0x126C3, offset: 0x126C3, size: 0x8, addend: 0x0, symName: __ZNKSt3__18ios_base5widthB8ue170006Ev, symObjAddr: 0x69A0, symBinAddr: 0x1000076D0, symSize: 0x20 }
  - { offsetInCU: 0x126EA, offset: 0x126EA, size: 0x8, addend: 0x0, symName: __ZNSt3__115basic_streambufIcNS_11char_traitsIcEEE5sputnB8ue170006EPKcl, symObjAddr: 0x69C0, symBinAddr: 0x1000076F0, symSize: 0x30 }
  - { offsetInCU: 0x1272B, offset: 0x1272B, size: 0x8, addend: 0x0, symName: __ZNSt3__112basic_stringIcNS_11char_traitsIcEENS_9allocatorIcEEEC1B8ue170006Emc, symObjAddr: 0x69F0, symBinAddr: 0x100007720, symSize: 0x30 }
  - { offsetInCU: 0x12772, offset: 0x12772, size: 0x8, addend: 0x0, symName: __ZNKSt3__112basic_stringIcNS_11char_traitsIcEENS_9allocatorIcEEE4dataB8ue170006Ev, symObjAddr: 0x6A20, symBinAddr: 0x100007750, symSize: 0x30 }
  - { offsetInCU: 0x12796, offset: 0x12796, size: 0x8, addend: 0x0, symName: __ZNSt3__18ios_base5widthB8ue170006El, symObjAddr: 0x6A50, symBinAddr: 0x100007780, symSize: 0x30 }
  - { offsetInCU: 0x127DB, offset: 0x127DB, size: 0x8, addend: 0x0, symName: __ZNSt3__112basic_stringIcNS_11char_traitsIcEENS_9allocatorIcEEEC2B8ue170006Emc, symObjAddr: 0x6A80, symBinAddr: 0x1000077B0, symSize: 0x50 }
  - { offsetInCU: 0x12822, offset: 0x12822, size: 0x8, addend: 0x0, symName: __ZNSt3__117__compressed_pairINS_12basic_stringIcNS_11char_traitsIcEENS_9allocatorIcEEE5__repES5_EC1B8ue170006INS_18__default_init_tagESA_EEOT_OT0_, symObjAddr: 0x6AD0, symBinAddr: 0x100007800, symSize: 0x30 }
  - { offsetInCU: 0x12879, offset: 0x12879, size: 0x8, addend: 0x0, symName: __ZNSt3__117__compressed_pairINS_12basic_stringIcNS_11char_traitsIcEENS_9allocatorIcEEE5__repES5_EC2B8ue170006INS_18__default_init_tagESA_EEOT_OT0_, symObjAddr: 0x6B00, symBinAddr: 0x100007830, symSize: 0x30 }
  - { offsetInCU: 0x128D0, offset: 0x128D0, size: 0x8, addend: 0x0, symName: __ZNSt3__122__compressed_pair_elemINS_12basic_stringIcNS_11char_traitsIcEENS_9allocatorIcEEE5__repELi0ELb0EEC2B8ue170006ENS_18__default_init_tagE, symObjAddr: 0x6B30, symBinAddr: 0x100007860, symSize: 0x10 }
  - { offsetInCU: 0x12903, offset: 0x12903, size: 0x8, addend: 0x0, symName: __ZNSt3__122__compressed_pair_elemINS_9allocatorIcEELi1ELb1EEC2B8ue170006ENS_18__default_init_tagE, symObjAddr: 0x6B40, symBinAddr: 0x100007870, symSize: 0x20 }
  - { offsetInCU: 0x12936, offset: 0x12936, size: 0x8, addend: 0x0, symName: __ZNSt3__19allocatorIcEC2B8ue170006Ev, symObjAddr: 0x6B60, symBinAddr: 0x100007890, symSize: 0x20 }
  - { offsetInCU: 0x1295F, offset: 0x1295F, size: 0x8, addend: 0x0, symName: __ZNSt3__116__non_trivial_ifILb1ENS_9allocatorIcEEEC2B8ue170006Ev, symObjAddr: 0x6B80, symBinAddr: 0x1000078B0, symSize: 0x10 }
  - { offsetInCU: 0x12988, offset: 0x12988, size: 0x8, addend: 0x0, symName: __ZNKSt3__112basic_stringIcNS_11char_traitsIcEENS_9allocatorIcEEE13__get_pointerB8ue170006Ev, symObjAddr: 0x6BA0, symBinAddr: 0x1000078D0, symSize: 0x50 }
  - { offsetInCU: 0x129AD, offset: 0x129AD, size: 0x8, addend: 0x0, symName: __ZNKSt3__112basic_stringIcNS_11char_traitsIcEENS_9allocatorIcEEE9__is_longB8ue170006Ev, symObjAddr: 0x6BF0, symBinAddr: 0x100007920, symSize: 0x30 }
  - { offsetInCU: 0x129D2, offset: 0x129D2, size: 0x8, addend: 0x0, symName: __ZNKSt3__112basic_stringIcNS_11char_traitsIcEENS_9allocatorIcEEE18__get_long_pointerB8ue170006Ev, symObjAddr: 0x6C20, symBinAddr: 0x100007950, symSize: 0x20 }
  - { offsetInCU: 0x129F7, offset: 0x129F7, size: 0x8, addend: 0x0, symName: __ZNKSt3__112basic_stringIcNS_11char_traitsIcEENS_9allocatorIcEEE19__get_short_pointerB8ue170006Ev, symObjAddr: 0x6C40, symBinAddr: 0x100007970, symSize: 0x30 }
  - { offsetInCU: 0x12A1C, offset: 0x12A1C, size: 0x8, addend: 0x0, symName: __ZNKSt3__117__compressed_pairINS_12basic_stringIcNS_11char_traitsIcEENS_9allocatorIcEEE5__repES5_E5firstB8ue170006Ev, symObjAddr: 0x6C70, symBinAddr: 0x1000079A0, symSize: 0x20 }
  - { offsetInCU: 0x12A41, offset: 0x12A41, size: 0x8, addend: 0x0, symName: __ZNKSt3__122__compressed_pair_elemINS_12basic_stringIcNS_11char_traitsIcEENS_9allocatorIcEEE5__repELi0ELb0EE5__getB8ue170006Ev, symObjAddr: 0x6C90, symBinAddr: 0x1000079C0, symSize: 0x10 }
  - { offsetInCU: 0x12A66, offset: 0x12A66, size: 0x8, addend: 0x0, symName: __ZNSt3__114pointer_traitsIPKcE10pointer_toB8ue170006ERS1_, symObjAddr: 0x6CA0, symBinAddr: 0x1000079D0, symSize: 0x10 }
  - { offsetInCU: 0x12A89, offset: 0x12A89, size: 0x8, addend: 0x0, symName: __ZNSt3__119ostreambuf_iteratorIcNS_11char_traitsIcEEEC2B8ue170006ERNS_13basic_ostreamIcS2_EE, symObjAddr: 0x6CB0, symBinAddr: 0x1000079E0, symSize: 0x50 }
  - { offsetInCU: 0x12ABF, offset: 0x12ABF, size: 0x8, addend: 0x0, symName: __ZNKSt3__19basic_iosIcNS_11char_traitsIcEEE5rdbufB8ue170006Ev, symObjAddr: 0x6D00, symBinAddr: 0x100007A30, symSize: 0x20 }
  - { offsetInCU: 0x12AE6, offset: 0x12AE6, size: 0x8, addend: 0x0, symName: __ZNKSt3__18ios_base5rdbufB8ue170006Ev, symObjAddr: 0x6D20, symBinAddr: 0x100007A50, symSize: 0x20 }
  - { offsetInCU: 0x12B0B, offset: 0x12B0B, size: 0x8, addend: 0x0, symName: __ZNSt3__111char_traitsIcE11eq_int_typeB8ue170006Eii, symObjAddr: 0x6D40, symBinAddr: 0x100007A70, symSize: 0x20 }
  - { offsetInCU: 0x12B3E, offset: 0x12B3E, size: 0x8, addend: 0x0, symName: __ZNSt3__111char_traitsIcE3eofB8ue170006Ev, symObjAddr: 0x6D60, symBinAddr: 0x100007A90, symSize: 0x10 }
  - { offsetInCU: 0x12B51, offset: 0x12B51, size: 0x8, addend: 0x0, symName: __ZNKSt3__19basic_iosIcNS_11char_traitsIcEEE5widenB8ue170006Ec, symObjAddr: 0x6D70, symBinAddr: 0x100007AA0, symSize: 0x80 }
  - { offsetInCU: 0x12BB9, offset: 0x12BB9, size: 0x8, addend: 0x0, symName: __ZNKSt3__15ctypeIcE5widenB8ue170006Ec, symObjAddr: 0x6E20, symBinAddr: 0x100007B50, symSize: 0x30 }
  - { offsetInCU: 0x12BEC, offset: 0x12BEC, size: 0x8, addend: 0x0, symName: __ZNSt3__18ios_base8setstateB8ue170006Ej, symObjAddr: 0x6E50, symBinAddr: 0x100007B80, symSize: 0x30 }
  - { offsetInCU: 0x3DE4, offset: 0x16B9B, size: 0x8, addend: 0x0, symName: __ZNSt3__1lsB8ue170006IcNS_11char_traitsIcEENS_9allocatorIcEEEERNS_13basic_ostreamIT_T0_EES9_RKNS_12basic_stringIS6_S7_T1_EE, symObjAddr: 0x130, symBinAddr: 0x100007C50, symSize: 0x50 }
  - { offsetInCU: 0x7337, offset: 0x1A0EE, size: 0x8, addend: 0x0, symName: __Z7UI_initP2UI, symObjAddr: 0x0, symBinAddr: 0x100007BD0, symSize: 0x40 }
  - { offsetInCU: 0x735F, offset: 0x1A116, size: 0x8, addend: 0x0, symName: __Z14UI_drawMessageP2UIRKNSt3__112basic_stringIcNS1_11char_traitsIcEENS1_9allocatorIcEEEE, symObjAddr: 0xF0, symBinAddr: 0x100007C10, symSize: 0x40 }
  - { offsetInCU: 0x7395, offset: 0x1A14C, size: 0x8, addend: 0x0, symName: __Z18UI_displaySolutionP2UIPK6Solver, symObjAddr: 0x180, symBinAddr: 0x100007CA0, symSize: 0x30 }
  - { offsetInCU: 0x73E9, offset: 0x1A1A0, size: 0x8, addend: 0x0, symName: __ZNKSt3__112basic_stringIcNS_11char_traitsIcEENS_9allocatorIcEEE4sizeB8ue170006Ev, symObjAddr: 0xC30, symBinAddr: 0x100007CD0, symSize: 0x50 }
  - { offsetInCU: 0x740E, offset: 0x1A1C5, size: 0x8, addend: 0x0, symName: __ZNKSt3__112basic_stringIcNS_11char_traitsIcEENS_9allocatorIcEEE15__get_long_sizeB8ue170006Ev, symObjAddr: 0xC80, symBinAddr: 0x100007D20, symSize: 0x20 }
  - { offsetInCU: 0x7433, offset: 0x1A1EA, size: 0x8, addend: 0x0, symName: __ZNKSt3__112basic_stringIcNS_11char_traitsIcEENS_9allocatorIcEEE16__get_short_sizeB8ue170006Ev, symObjAddr: 0xCA0, symBinAddr: 0x100007D40, symSize: 0x23 }
  - { offsetInCU: 0x1B5A, offset: 0x1BECB, size: 0x8, addend: 0x0, symName: __ZNSt3__122__make_exception_guardB8ue170006INS_6vectorIiNS_9allocatorIiEEE16__destroy_vectorEEENS_28__exception_guard_exceptionsIT_EES7_, symObjAddr: 0x390, symBinAddr: 0x100008100, symSize: 0x40 }
  - { offsetInCU: 0x1B8F, offset: 0x1BF00, size: 0x8, addend: 0x0, symName: __ZNSt3__119__allocate_at_leastB8ue170006INS_9allocatorIiEEEENS_19__allocation_resultINS_16allocator_traitsIT_E7pointerEEERS5_m, symObjAddr: 0x740, symBinAddr: 0x1000084B0, symSize: 0x40 }
  - { offsetInCU: 0x1BD2, offset: 0x1BF43, size: 0x8, addend: 0x0, symName: __ZNSt3__112__to_addressB8ue170006IiEEPT_S2_, symObjAddr: 0xC60, symBinAddr: 0x100008790, symSize: 0x10 }
  - { offsetInCU: 0x50D9, offset: 0x1F44A, size: 0x8, addend: 0x0, symName: __Z11Solver_initP6Solveri, symObjAddr: 0x0, symBinAddr: 0x100007D70, symSize: 0x30 }
  - { offsetInCU: 0x510F, offset: 0x1F480, size: 0x8, addend: 0x0, symName: __Z12Solver_solveP6Solver, symObjAddr: 0x30, symBinAddr: 0x100007DA0, symSize: 0x1C0 }
  - { offsetInCU: 0x519C, offset: 0x1F50D, size: 0x8, addend: 0x0, symName: __ZNSt3__16vectorIiNS_9allocatorIiEEEC1EmRKi, symObjAddr: 0x1F0, symBinAddr: 0x100007F60, symSize: 0x30 }
  - { offsetInCU: 0x51E5, offset: 0x1F556, size: 0x8, addend: 0x0, symName: __ZNSt3__16vectorIiNS_9allocatorIiEEEixB8ue170006Em, symObjAddr: 0x220, symBinAddr: 0x100007F90, symSize: 0x20 }
  - { offsetInCU: 0x521A, offset: 0x1F58B, size: 0x8, addend: 0x0, symName: __ZNSt3__16vectorIiNS_9allocatorIiEEED1B8ue170006Ev, symObjAddr: 0x240, symBinAddr: 0x100007FB0, symSize: 0x20 }
  - { offsetInCU: 0x5243, offset: 0x1F5B4, size: 0x8, addend: 0x0, symName: __Z22Solver_displaySolutionPK6Solver, symObjAddr: 0x260, symBinAddr: 0x100007FD0, symSize: 0x20 }
  - { offsetInCU: 0x526B, offset: 0x1F5DC, size: 0x8, addend: 0x0, symName: __ZNSt3__16vectorIiNS_9allocatorIiEEEC2EmRKi, symObjAddr: 0x280, symBinAddr: 0x100007FF0, symSize: 0xE0 }
  - { offsetInCU: 0x52D3, offset: 0x1F644, size: 0x8, addend: 0x0, symName: __ZNSt3__117__compressed_pairIPiNS_9allocatorIiEEEC1B8ue170006IDnNS_18__default_init_tagEEEOT_OT0_, symObjAddr: 0x360, symBinAddr: 0x1000080D0, symSize: 0x30 }
  - { offsetInCU: 0x532A, offset: 0x1F69B, size: 0x8, addend: 0x0, symName: __ZNSt3__16vectorIiNS_9allocatorIiEEE16__destroy_vectorC1B8ue170006ERS3_, symObjAddr: 0x3D0, symBinAddr: 0x100008140, symSize: 0x30 }
  - { offsetInCU: 0x5362, offset: 0x1F6D3, size: 0x8, addend: 0x0, symName: __ZNSt3__16vectorIiNS_9allocatorIiEEE11__vallocateB8ue170006Em, symObjAddr: 0x400, symBinAddr: 0x100008170, symSize: 0xA0 }
  - { offsetInCU: 0x53A5, offset: 0x1F716, size: 0x8, addend: 0x0, symName: __ZNSt3__16vectorIiNS_9allocatorIiEEE18__construct_at_endEmRKi, symObjAddr: 0x4A0, symBinAddr: 0x100008210, symSize: 0xC0 }
  - { offsetInCU: 0x5424, offset: 0x1F795, size: 0x8, addend: 0x0, symName: __ZNSt3__128__exception_guard_exceptionsINS_6vectorIiNS_9allocatorIiEEE16__destroy_vectorEE10__completeB8ue170006Ev, symObjAddr: 0x560, symBinAddr: 0x1000082D0, symSize: 0x20 }
  - { offsetInCU: 0x5449, offset: 0x1F7BA, size: 0x8, addend: 0x0, symName: __ZNSt3__128__exception_guard_exceptionsINS_6vectorIiNS_9allocatorIiEEE16__destroy_vectorEED1B8ue170006Ev, symObjAddr: 0x580, symBinAddr: 0x1000082F0, symSize: 0x20 }
  - { offsetInCU: 0x5472, offset: 0x1F7E3, size: 0x8, addend: 0x0, symName: __ZNSt3__117__compressed_pairIPiNS_9allocatorIiEEEC2B8ue170006IDnNS_18__default_init_tagEEEOT_OT0_, symObjAddr: 0x5A0, symBinAddr: 0x100008310, symSize: 0x40 }
  - { offsetInCU: 0x54C9, offset: 0x1F83A, size: 0x8, addend: 0x0, symName: __ZNSt3__122__compressed_pair_elemIPiLi0ELb0EEC2B8ue170006IDnvEEOT_, symObjAddr: 0x5E0, symBinAddr: 0x100008350, symSize: 0x20 }
  - { offsetInCU: 0x550A, offset: 0x1F87B, size: 0x8, addend: 0x0, symName: __ZNSt3__122__compressed_pair_elemINS_9allocatorIiEELi1ELb1EEC2B8ue170006ENS_18__default_init_tagE, symObjAddr: 0x600, symBinAddr: 0x100008370, symSize: 0x20 }
  - { offsetInCU: 0x553D, offset: 0x1F8AE, size: 0x8, addend: 0x0, symName: __ZNSt3__19allocatorIiEC2B8ue170006Ev, symObjAddr: 0x620, symBinAddr: 0x100008390, symSize: 0x20 }
  - { offsetInCU: 0x5566, offset: 0x1F8D7, size: 0x8, addend: 0x0, symName: __ZNSt3__116__non_trivial_ifILb1ENS_9allocatorIiEEEC2B8ue170006Ev, symObjAddr: 0x640, symBinAddr: 0x1000083B0, symSize: 0x10 }
  - { offsetInCU: 0x558F, offset: 0x1F900, size: 0x8, addend: 0x0, symName: __ZNSt3__128__exception_guard_exceptionsINS_6vectorIiNS_9allocatorIiEEE16__destroy_vectorEEC1B8ue170006ES5_, symObjAddr: 0x650, symBinAddr: 0x1000083C0, symSize: 0x30 }
  - { offsetInCU: 0x55C6, offset: 0x1F937, size: 0x8, addend: 0x0, symName: __ZNSt3__128__exception_guard_exceptionsINS_6vectorIiNS_9allocatorIiEEE16__destroy_vectorEEC2B8ue170006ES5_, symObjAddr: 0x680, symBinAddr: 0x1000083F0, symSize: 0x20 }
  - { offsetInCU: 0x55FD, offset: 0x1F96E, size: 0x8, addend: 0x0, symName: __ZNSt3__16vectorIiNS_9allocatorIiEEE16__destroy_vectorC2B8ue170006ERS3_, symObjAddr: 0x6A0, symBinAddr: 0x100008410, symSize: 0x20 }
  - { offsetInCU: 0x5635, offset: 0x1F9A6, size: 0x8, addend: 0x0, symName: __ZNKSt3__16vectorIiNS_9allocatorIiEEE8max_sizeEv, symObjAddr: 0x6C0, symBinAddr: 0x100008430, symSize: 0x60 }
  - { offsetInCU: 0x565B, offset: 0x1F9CC, size: 0x8, addend: 0x0, symName: __ZNKSt3__16vectorIiNS_9allocatorIiEEE20__throw_length_errorB8ue170006Ev, symObjAddr: 0x720, symBinAddr: 0x100008490, symSize: 0x20 }
  - { offsetInCU: 0x5680, offset: 0x1F9F1, size: 0x8, addend: 0x0, symName: __ZNSt3__16vectorIiNS_9allocatorIiEEE7__allocB8ue170006Ev, symObjAddr: 0x780, symBinAddr: 0x1000084F0, symSize: 0x20 }
  - { offsetInCU: 0x56A5, offset: 0x1FA16, size: 0x8, addend: 0x0, symName: __ZNSt3__16vectorIiNS_9allocatorIiEEE9__end_capB8ue170006Ev, symObjAddr: 0x7A0, symBinAddr: 0x100008510, symSize: 0x20 }
  - { offsetInCU: 0x56CA, offset: 0x1FA3B, size: 0x8, addend: 0x0, symName: __ZNKSt3__16vectorIiNS_9allocatorIiEEE14__annotate_newB8ue170006Em, symObjAddr: 0x7C0, symBinAddr: 0x100008530, symSize: 0xB0 }
  - { offsetInCU: 0x5708, offset: 0x1FA79, size: 0x8, addend: 0x0, symName: __ZNSt3__116allocator_traitsINS_9allocatorIiEEE8max_sizeB8ue170006IS2_vEEmRKS2_, symObjAddr: 0x8A0, symBinAddr: 0x1000085E0, symSize: 0x20 }
  - { offsetInCU: 0x5736, offset: 0x1FAA7, size: 0x8, addend: 0x0, symName: __ZNKSt3__16vectorIiNS_9allocatorIiEEE7__allocB8ue170006Ev, symObjAddr: 0x8C0, symBinAddr: 0x100008600, symSize: 0x20 }
  - { offsetInCU: 0x575B, offset: 0x1FACC, size: 0x8, addend: 0x0, symName: __ZNKSt3__19allocatorIiE8max_sizeB8ue170006Ev, symObjAddr: 0x980, symBinAddr: 0x100008620, symSize: 0x20 }
  - { offsetInCU: 0x5780, offset: 0x1FAF1, size: 0x8, addend: 0x0, symName: __ZNKSt3__117__compressed_pairIPiNS_9allocatorIiEEE6secondB8ue170006Ev, symObjAddr: 0x9A0, symBinAddr: 0x100008640, symSize: 0x20 }
  - { offsetInCU: 0x57A5, offset: 0x1FB16, size: 0x8, addend: 0x0, symName: __ZNKSt3__122__compressed_pair_elemINS_9allocatorIiEELi1ELb1EE5__getB8ue170006Ev, symObjAddr: 0x9C0, symBinAddr: 0x100008660, symSize: 0x10 }
  - { offsetInCU: 0x57CA, offset: 0x1FB3B, size: 0x8, addend: 0x0, symName: __ZNSt3__19allocatorIiE8allocateB8ue170006Em, symObjAddr: 0xAC0, symBinAddr: 0x100008670, symSize: 0x50 }
  - { offsetInCU: 0x57FD, offset: 0x1FB6E, size: 0x8, addend: 0x0, symName: __ZNSt3__117__compressed_pairIPiNS_9allocatorIiEEE6secondB8ue170006Ev, symObjAddr: 0xB90, symBinAddr: 0x1000086C0, symSize: 0x20 }
  - { offsetInCU: 0x5822, offset: 0x1FB93, size: 0x8, addend: 0x0, symName: __ZNSt3__122__compressed_pair_elemINS_9allocatorIiEELi1ELb1EE5__getB8ue170006Ev, symObjAddr: 0xBB0, symBinAddr: 0x1000086E0, symSize: 0x10 }
  - { offsetInCU: 0x5847, offset: 0x1FBB8, size: 0x8, addend: 0x0, symName: __ZNSt3__117__compressed_pairIPiNS_9allocatorIiEEE5firstB8ue170006Ev, symObjAddr: 0xBC0, symBinAddr: 0x1000086F0, symSize: 0x20 }
  - { offsetInCU: 0x586C, offset: 0x1FBDD, size: 0x8, addend: 0x0, symName: __ZNSt3__122__compressed_pair_elemIPiLi0ELb0EE5__getB8ue170006Ev, symObjAddr: 0xBE0, symBinAddr: 0x100008710, symSize: 0x10 }
  - { offsetInCU: 0x5891, offset: 0x1FC02, size: 0x8, addend: 0x0, symName: __ZNKSt3__16vectorIiNS_9allocatorIiEEE31__annotate_contiguous_containerB8ue170006EPKvS5_S5_S5_, symObjAddr: 0xBF0, symBinAddr: 0x100008720, symSize: 0x20 }
  - { offsetInCU: 0x58E2, offset: 0x1FC53, size: 0x8, addend: 0x0, symName: __ZNKSt3__16vectorIiNS_9allocatorIiEEE4dataB8ue170006Ev, symObjAddr: 0xC10, symBinAddr: 0x100008740, symSize: 0x20 }
  - { offsetInCU: 0x5907, offset: 0x1FC78, size: 0x8, addend: 0x0, symName: __ZNKSt3__16vectorIiNS_9allocatorIiEEE8capacityB8ue170006Ev, symObjAddr: 0xC30, symBinAddr: 0x100008760, symSize: 0x30 }
  - { offsetInCU: 0x592C, offset: 0x1FC9D, size: 0x8, addend: 0x0, symName: __ZNKSt3__16vectorIiNS_9allocatorIiEEE9__end_capB8ue170006Ev, symObjAddr: 0xC70, symBinAddr: 0x1000087A0, symSize: 0x20 }
  - { offsetInCU: 0x5951, offset: 0x1FCC2, size: 0x8, addend: 0x0, symName: __ZNKSt3__117__compressed_pairIPiNS_9allocatorIiEEE5firstB8ue170006Ev, symObjAddr: 0xC90, symBinAddr: 0x1000087C0, symSize: 0x20 }
  - { offsetInCU: 0x5976, offset: 0x1FCE7, size: 0x8, addend: 0x0, symName: __ZNKSt3__122__compressed_pair_elemIPiLi0ELb0EE5__getB8ue170006Ev, symObjAddr: 0xCB0, symBinAddr: 0x1000087E0, symSize: 0x10 }
  - { offsetInCU: 0x59B4, offset: 0x1FD25, size: 0x8, addend: 0x0, symName: __ZNSt3__16vectorIiNS_9allocatorIiEEE21_ConstructTransactionC1B8ue170006ERS3_m, symObjAddr: 0xCC0, symBinAddr: 0x1000087F0, symSize: 0x30 }
  - { offsetInCU: 0x59FB, offset: 0x1FD6C, size: 0x8, addend: 0x0, symName: __ZNSt3__116allocator_traitsINS_9allocatorIiEEE9constructB8ue170006IiJRKiEvEEvRS2_PT_DpOT0_, symObjAddr: 0xCF0, symBinAddr: 0x100008820, symSize: 0x30 }
  - { offsetInCU: 0x5A52, offset: 0x1FDC3, size: 0x8, addend: 0x0, symName: __ZNSt3__16vectorIiNS_9allocatorIiEEE21_ConstructTransactionD1B8ue170006Ev, symObjAddr: 0xD20, symBinAddr: 0x100008850, symSize: 0x20 }
  - { offsetInCU: 0x5A7B, offset: 0x1FDEC, size: 0x8, addend: 0x0, symName: __ZNSt3__16vectorIiNS_9allocatorIiEEE21_ConstructTransactionC2B8ue170006ERS3_m, symObjAddr: 0xD40, symBinAddr: 0x100008870, symSize: 0x40 }
  - { offsetInCU: 0x5AC2, offset: 0x1FE33, size: 0x8, addend: 0x0, symName: __ZNSt3__19allocatorIiE9constructB8ue170006IiJRKiEEEvPT_DpOT0_, symObjAddr: 0xD80, symBinAddr: 0x1000088B0, symSize: 0x20 }
  - { offsetInCU: 0x5B17, offset: 0x1FE88, size: 0x8, addend: 0x0, symName: __ZNSt3__16vectorIiNS_9allocatorIiEEE21_ConstructTransactionD2B8ue170006Ev, symObjAddr: 0xDA0, symBinAddr: 0x1000088D0, symSize: 0x20 }
  - { offsetInCU: 0x5B40, offset: 0x1FEB1, size: 0x8, addend: 0x0, symName: __ZNSt3__128__exception_guard_exceptionsINS_6vectorIiNS_9allocatorIiEEE16__destroy_vectorEED2B8ue170006Ev, symObjAddr: 0xDC0, symBinAddr: 0x1000088F0, symSize: 0x40 }
  - { offsetInCU: 0x5B69, offset: 0x1FEDA, size: 0x8, addend: 0x0, symName: __ZNSt3__16vectorIiNS_9allocatorIiEEE16__destroy_vectorclB8ue170006Ev, symObjAddr: 0xE00, symBinAddr: 0x100008930, symSize: 0x80 }
  - { offsetInCU: 0x5B8E, offset: 0x1FEFF, size: 0x8, addend: 0x0, symName: __ZNSt3__16vectorIiNS_9allocatorIiEEE7__clearB8ue170006Ev, symObjAddr: 0xE80, symBinAddr: 0x1000089B0, symSize: 0x20 }
  - { offsetInCU: 0x5BB3, offset: 0x1FF24, size: 0x8, addend: 0x0, symName: __ZNKSt3__16vectorIiNS_9allocatorIiEEE17__annotate_deleteB8ue170006Ev, symObjAddr: 0xEA0, symBinAddr: 0x1000089D0, symSize: 0xB0 }
  - { offsetInCU: 0x5BD8, offset: 0x1FF49, size: 0x8, addend: 0x0, symName: __ZNSt3__116allocator_traitsINS_9allocatorIiEEE10deallocateB8ue170006ERS2_Pim, symObjAddr: 0xF50, symBinAddr: 0x100008A80, symSize: 0x30 }
  - { offsetInCU: 0x5C1A, offset: 0x1FF8B, size: 0x8, addend: 0x0, symName: __ZNSt3__16vectorIiNS_9allocatorIiEEE22__base_destruct_at_endB8ue170006EPi, symObjAddr: 0xF80, symBinAddr: 0x100008AB0, symSize: 0x80 }
  - { offsetInCU: 0x5C5D, offset: 0x1FFCE, size: 0x8, addend: 0x0, symName: __ZNSt3__116allocator_traitsINS_9allocatorIiEEE7destroyB8ue170006IivEEvRS2_PT_, symObjAddr: 0x1000, symBinAddr: 0x100008B30, symSize: 0x30 }
  - { offsetInCU: 0x5C9A, offset: 0x2000B, size: 0x8, addend: 0x0, symName: __ZNSt3__19allocatorIiE7destroyB8ue170006EPi, symObjAddr: 0x1030, symBinAddr: 0x100008B60, symSize: 0x10 }
  - { offsetInCU: 0x5CCD, offset: 0x2003E, size: 0x8, addend: 0x0, symName: __ZNKSt3__16vectorIiNS_9allocatorIiEEE4sizeB8ue170006Ev, symObjAddr: 0x1040, symBinAddr: 0x100008B70, symSize: 0x20 }
  - { offsetInCU: 0x5CF2, offset: 0x20063, size: 0x8, addend: 0x0, symName: __ZNSt3__19allocatorIiE10deallocateB8ue170006EPim, symObjAddr: 0x1060, symBinAddr: 0x100008B90, symSize: 0x40 }
  - { offsetInCU: 0x5D33, offset: 0x200A4, size: 0x8, addend: 0x0, symName: __ZNSt3__16vectorIiNS_9allocatorIiEEED2B8ue170006Ev, symObjAddr: 0x1110, symBinAddr: 0x100008BD0, symSize: 0x35 }
  - { offsetInCU: 0x52, offset: 0x202AA, size: 0x8, addend: 0x0, symName: __ZL33register_test_left_diagonal_clear, symObjAddr: 0x68F50, symBinAddr: 0x100013010, symSize: 0x0 }
  - { offsetInCU: 0xA9E2, offset: 0x2AC3A, size: 0x8, addend: 0x0, symName: __ZNSt3__1lsB8ue170006INS_11char_traitsIcEEEERNS_13basic_ostreamIcT_EES6_c, symObjAddr: 0x7C0, symBinAddr: 0x1000092D0, symSize: 0x30 }
  - { offsetInCU: 0xAA33, offset: 0x2AC8B, size: 0x8, addend: 0x0, symName: __ZNSt3__1neB8ue170006IPNS_12basic_stringIcNS_11char_traitsIcEENS_9allocatorIcEEEEEEbRKNS_11__wrap_iterIT_EESC_, symObjAddr: 0x1AA0, symBinAddr: 0x10000A5A0, symSize: 0x30 }
  - { offsetInCU: 0xAA76, offset: 0x2ACCE, size: 0x8, addend: 0x0, symName: __ZNSt3__1eqB8ue170006ERKNS_14__map_iteratorINS_15__tree_iteratorINS_12__value_typeINS_12basic_stringIcNS_11char_traitsIcEENS_9allocatorIcEEEE8TestCaseEEPNS_11__tree_nodeISA_PvEElEEEESI_, symObjAddr: 0x1AF0, symBinAddr: 0x10000A5F0, symSize: 0x30 }
  - { offsetInCU: 0xAAB3, offset: 0x2AD0B, size: 0x8, addend: 0x0, symName: __ZNSt3__13endB8ue170006INS_3mapINS_12basic_stringIcNS_11char_traitsIcEENS_9allocatorIcEEEE8TestCaseNS_4lessIS7_EENS5_INS_4pairIKS7_S8_EEEEEEEEDTcldtfp_3endEERT_, symObjAddr: 0x1B60, symBinAddr: 0x10000A660, symSize: 0x30 }
  - { offsetInCU: 0xAAE8, offset: 0x2AD40, size: 0x8, addend: 0x0, symName: __ZNSt3__1plB8ue170006IcNS_11char_traitsIcEENS_9allocatorIcEEEENS_12basic_stringIT_T0_T1_EEOS9_PKS6_, symObjAddr: 0x1B90, symBinAddr: 0x10000A690, symSize: 0x50 }
  - { offsetInCU: 0xAB40, offset: 0x2AD98, size: 0x8, addend: 0x0, symName: '__ZNSt3__18count_ifB8ue170006INS_14__map_iteratorINS_15__tree_iteratorINS_12__value_typeINS_12basic_stringIcNS_11char_traitsIcEENS_9allocatorIcEEEE8TestCaseEEPNS_11__tree_nodeISB_PvEElEEEEZN9TestSuite9run_testsEiPPcE3$_0EENS_15iterator_traitsIT_E15difference_typeESN_SN_T0_', symObjAddr: 0x1C60, symBinAddr: 0x10000A760, symSize: 0xF0 }
  - { offsetInCU: 0xABA9, offset: 0x2AE01, size: 0x8, addend: 0x0, symName: '__ZNSt3__18count_ifB8ue170006INS_14__map_iteratorINS_15__tree_iteratorINS_12__value_typeINS_12basic_stringIcNS_11char_traitsIcEENS_9allocatorIcEEEE8TestCaseEEPNS_11__tree_nodeISB_PvEElEEEEZN9TestSuite9run_testsEiPPcE3$_1EENS_15iterator_traitsIT_E15difference_typeESN_SN_T0_', symObjAddr: 0x1DB0, symBinAddr: 0x10000A8B0, symSize: 0xF0 }
  - { offsetInCU: 0xAC12, offset: 0x2AE6A, size: 0x8, addend: 0x0, symName: __ZNSt3__1eqB8ue170006IcNS_11char_traitsIcEENS_9allocatorIcEEEEbPKT_RKNS_12basic_stringIS5_T0_T1_EE, symObjAddr: 0x1EF0, symBinAddr: 0x10000A9F0, symSize: 0x90 }
  - { offsetInCU: 0xAC79, offset: 0x2AED1, size: 0x8, addend: 0x0, symName: __ZNSt3__15flushB8ue170006IcNS_11char_traitsIcEEEERNS_13basic_ostreamIT_T0_EES7_, symObjAddr: 0x20C0, symBinAddr: 0x10000ABC0, symSize: 0x20 }
  - { offsetInCU: 0xACB9, offset: 0x2AF11, size: 0x8, addend: 0x0, symName: '__ZNSt3__19transformB8ue170006INS_14__map_iteratorINS_15__tree_iteratorINS_12__value_typeINS_12basic_stringIcNS_11char_traitsIcEENS_9allocatorIcEEEE8TestCaseEEPNS_11__tree_nodeISB_PvEElEEEENS_20back_insert_iteratorINS_6vectorIS9_NS7_IS9_EEEEEEZN9TestSuite21get_test_names_to_runEiPPcE3$_2EET0_T_SS_SR_T1_', symObjAddr: 0x21D0, symBinAddr: 0x10000ACD0, symSize: 0x130 }
  - { offsetInCU: 0xAD2B, offset: 0x2AF83, size: 0x8, addend: 0x0, symName: __ZNSt3__15beginB8ue170006INS_3mapINS_12basic_stringIcNS_11char_traitsIcEENS_9allocatorIcEEEE8TestCaseNS_4lessIS7_EENS5_INS_4pairIKS7_S8_EEEEEEEEDTcldtfp_5beginEERT_, symObjAddr: 0x2300, symBinAddr: 0x10000AE00, symSize: 0x30 }
  - { offsetInCU: 0xAD60, offset: 0x2AFB8, size: 0x8, addend: 0x0, symName: __ZNSt3__113back_inserterB8ue170006INS_6vectorINS_12basic_stringIcNS_11char_traitsIcEENS_9allocatorIcEEEENS5_IS7_EEEEEENS_20back_insert_iteratorIT_EERSB_, symObjAddr: 0x2330, symBinAddr: 0x10000AE30, symSize: 0x30 }
  - { offsetInCU: 0xAD95, offset: 0x2AFED, size: 0x8, addend: 0x0, symName: __ZNSt3__1eqB8ue170006IPNS_12basic_stringIcNS_11char_traitsIcEENS_9allocatorIcEEEEEEbRKNS_11__wrap_iterIT_EESC_, symObjAddr: 0x2E40, symBinAddr: 0x10000B940, symSize: 0x40 }
  - { offsetInCU: 0xAE0B, offset: 0x2B063, size: 0x8, addend: 0x0, symName: __ZNSt3__1neB8ue170006ERKNS_14__map_iteratorINS_15__tree_iteratorINS_12__value_typeINS_12basic_stringIcNS_11char_traitsIcEENS_9allocatorIcEEEE8TestCaseEEPNS_11__tree_nodeISA_PvEElEEEESI_, symObjAddr: 0x3720, symBinAddr: 0x10000C190, symSize: 0x30 }
  - { offsetInCU: 0xAE48, offset: 0x2B0A0, size: 0x8, addend: 0x0, symName: __ZNSt3__1neB8ue170006ERKNS_15__tree_iteratorINS_12__value_typeINS_12basic_stringIcNS_11char_traitsIcEENS_9allocatorIcEEEE8TestCaseEEPNS_11__tree_nodeIS9_PvEElEESG_, symObjAddr: 0x37B0, symBinAddr: 0x10000C220, symSize: 0x30 }
  - { offsetInCU: 0xAE85, offset: 0x2B0DD, size: 0x8, addend: 0x0, symName: __ZNSt3__1eqB8ue170006ERKNS_15__tree_iteratorINS_12__value_typeINS_12basic_stringIcNS_11char_traitsIcEENS_9allocatorIcEEEE8TestCaseEEPNS_11__tree_nodeIS9_PvEElEESG_, symObjAddr: 0x37E0, symBinAddr: 0x10000C250, symSize: 0x30 }
  - { offsetInCU: 0xAEF5, offset: 0x2B14D, size: 0x8, addend: 0x0, symName: __ZNSt3__116__tree_next_iterB8ue170006IPNS_15__tree_end_nodeIPNS_16__tree_node_baseIPvEEEES5_EET_T0_, symObjAddr: 0x38A0, symBinAddr: 0x10000C310, symSize: 0x90 }
  - { offsetInCU: 0xAF33, offset: 0x2B18B, size: 0x8, addend: 0x0, symName: __ZNSt3__110__tree_minB8ue170006IPNS_16__tree_node_baseIPvEEEET_S5_, symObjAddr: 0x3930, symBinAddr: 0x10000C3A0, symSize: 0x30 }
  - { offsetInCU: 0xAF68, offset: 0x2B1C0, size: 0x8, addend: 0x0, symName: __ZNSt3__120__tree_is_left_childB8ue170006IPNS_16__tree_node_baseIPvEEEEbT_, symObjAddr: 0x3960, symBinAddr: 0x10000C3D0, symSize: 0x30 }
  - { offsetInCU: 0xAFC1, offset: 0x2B219, size: 0x8, addend: 0x0, symName: __ZNSt3__1ltB8ue170006IcNS_11char_traitsIcEENS_9allocatorIcEEEEbRKNS_12basic_stringIT_T0_T1_EESB_, symObjAddr: 0x4470, symBinAddr: 0x10000CEE0, symSize: 0x30 }
  - { offsetInCU: 0xB037, offset: 0x2B28F, size: 0x8, addend: 0x0, symName: __ZNSt3__127__tree_balance_after_insertB8ue170006IPNS_16__tree_node_baseIPvEEEEvT_S5_, symObjAddr: 0x4E70, symBinAddr: 0x10000D5C0, symSize: 0x240 }
  - { offsetInCU: 0xB0B3, offset: 0x2B30B, size: 0x8, addend: 0x0, symName: __ZNSt3__118__tree_left_rotateB8ue170006IPNS_16__tree_node_baseIPvEEEEvT_, symObjAddr: 0x50D0, symBinAddr: 0x10000D820, symSize: 0xD0 }
  - { offsetInCU: 0xB0F5, offset: 0x2B34D, size: 0x8, addend: 0x0, symName: __ZNSt3__119__tree_right_rotateB8ue170006IPNS_16__tree_node_baseIPvEEEEvT_, symObjAddr: 0x51A0, symBinAddr: 0x10000D8F0, symSize: 0xC0 }
  - { offsetInCU: 0xB16A, offset: 0x2B3C2, size: 0x8, addend: 0x0, symName: __ZNSt3__112__to_addressB8ue170006INS_12basic_stringIcNS_11char_traitsIcEENS_9allocatorIcEEEEEEPT_S8_, symObjAddr: 0x76B0, symBinAddr: 0x10000EB00, symSize: 0x10 }
  - { offsetInCU: 0xB19F, offset: 0x2B3F7, size: 0x8, addend: 0x0, symName: __ZNSt3__120__throw_out_of_rangeB8ue170006EPKc, symObjAddr: 0x7CC0, symBinAddr: 0x10000F110, symSize: 0x70 }
  - { offsetInCU: 0xB2A4, offset: 0x2B4FC, size: 0x8, addend: 0x0, symName: __ZNSt3__119__allocate_at_leastB8ue170006INS_9allocatorINS_12basic_stringIcNS_11char_traitsIcEENS1_IcEEEEEEEENS_19__allocation_resultINS_16allocator_traitsIT_E7pointerEEERSA_m, symObjAddr: 0x8840, symBinAddr: 0x10000FB10, symSize: 0x40 }
  - { offsetInCU: 0xB2E7, offset: 0x2B53F, size: 0x8, addend: 0x0, symName: __ZNSt3__142__uninitialized_allocator_move_if_noexceptB8ue170006INS_9allocatorINS_12basic_stringIcNS_11char_traitsIcEENS1_IcEEEEEENS_16reverse_iteratorIPS6_EESA_SA_EET2_RT_T0_T1_SB_, symObjAddr: 0x89D0, symBinAddr: 0x10000FCA0, symSize: 0x180 }
  - { offsetInCU: 0xB386, offset: 0x2B5DE, size: 0x8, addend: 0x0, symName: __ZNSt3__14swapB8ue170006IPNS_12basic_stringIcNS_11char_traitsIcEENS_9allocatorIcEEEEEENS_9enable_ifIXaasr21is_move_constructibleIT_EE5valuesr18is_move_assignableIS9_EE5valueEvE4typeERS9_SC_, symObjAddr: 0x8BA0, symBinAddr: 0x10000FE70, symSize: 0x40 }
  - { offsetInCU: 0xB3D7, offset: 0x2B62F, size: 0x8, addend: 0x0, symName: __ZNSt3__122__make_exception_guardB8ue170006INS_29_AllocatorDestroyRangeReverseINS_9allocatorINS_12basic_stringIcNS_11char_traitsIcEENS2_IcEEEEEENS_16reverse_iteratorIPS7_EEEEEENS_28__exception_guard_exceptionsIT_EESE_, symObjAddr: 0x8C80, symBinAddr: 0x10000FF50, symSize: 0x60 }
  - { offsetInCU: 0xB40C, offset: 0x2B664, size: 0x8, addend: 0x0, symName: __ZNSt3__1neB8ue170006IPNS_12basic_stringIcNS_11char_traitsIcEENS_9allocatorIcEEEES7_EEbRKNS_16reverse_iteratorIT_EERKNS8_IT0_EE, symObjAddr: 0x8D20, symBinAddr: 0x10000FFF0, symSize: 0x40 }
  - { offsetInCU: 0xB458, offset: 0x2B6B0, size: 0x8, addend: 0x0, symName: __ZNSt3__112__to_addressB8ue170006INS_16reverse_iteratorIPNS_12basic_stringIcNS_11char_traitsIcEENS_9allocatorIcEEEEEEvEEu7__decayIDTclsr19__to_address_helperIT_EE6__callclsr3stdE7declvalIRKSA_EEEEESC_, symObjAddr: 0x8D60, symBinAddr: 0x100010030, symSize: 0x20 }
  - { offsetInCU: 0xB4B7, offset: 0x2B70F, size: 0x8, addend: 0x0, symName: __ZNSt3__119__allocator_destroyB8ue170006INS_9allocatorINS_12basic_stringIcNS_11char_traitsIcEENS1_IcEEEEEENS_16reverse_iteratorINS8_IPS6_EEEESB_EEvRT_T0_T1_, symObjAddr: 0x9050, symBinAddr: 0x100010320, symSize: 0x70 }
  - { offsetInCU: 0xB51A, offset: 0x2B772, size: 0x8, addend: 0x0, symName: __ZNSt3__1neB8ue170006INS_16reverse_iteratorIPNS_12basic_stringIcNS_11char_traitsIcEENS_9allocatorIcEEEEEES9_EEbRKNS1_IT_EERKNS1_IT0_EE, symObjAddr: 0x90F0, symBinAddr: 0x1000103C0, symSize: 0x50 }
  - { offsetInCU: 0xB566, offset: 0x2B7BE, size: 0x8, addend: 0x0, symName: __ZNSt3__112__to_addressB8ue170006INS_16reverse_iteratorINS1_IPNS_12basic_stringIcNS_11char_traitsIcEENS_9allocatorIcEEEEEEEEvEEu7__decayIDTclsr19__to_address_helperIT_EE6__callclsr3stdE7declvalIRKSB_EEEEESD_, symObjAddr: 0x9140, symBinAddr: 0x100010410, symSize: 0x20 }
  - { offsetInCU: 0xBA2D, offset: 0x2BC85, size: 0x8, addend: 0x0, symName: __ZL34register_test_right_diagonal_clear, symObjAddr: 0x68F51, symBinAddr: 0x100013011, symSize: 0x0 }
  - { offsetInCU: 0xBA47, offset: 0x2BC9F, size: 0x8, addend: 0x0, symName: __ZL9destroyer, symObjAddr: 0x68F52, symBinAddr: 0x100013012, symSize: 0x0 }
  - { offsetInCU: 0xBA78, offset: 0x2BCD0, size: 0x8, addend: 0x0, symName: __ZN9TestSuite10incompleteE, symObjAddr: 0x68F40, symBinAddr: 0x100013000, symSize: 0x0 }
  - { offsetInCU: 0xC36F, offset: 0x2C5C7, size: 0x8, addend: 0x0, symName: __ZN9TestSuite8instanceE, symObjAddr: 0x68F48, symBinAddr: 0x100013008, symSize: 0x0 }
  - { offsetInCU: 0xC56D, offset: 0x2C7C5, size: 0x8, addend: 0x0, symName: __ZNSt3__16vectorINS_12basic_stringIcNS_11char_traitsIcEENS_9allocatorIcEEEENS4_IS6_EEE26__swap_out_circular_bufferERNS_14__split_bufferIS6_RS7_EE, symObjAddr: 0x8380, symBinAddr: 0x10000F7D0, symSize: 0x120 }
  - { offsetInCU: 0xE400, offset: 0x2E658, size: 0x8, addend: 0x0, symName: __Z18safe_equals_helpermi, symObjAddr: 0x0, symBinAddr: 0x100008C10, symSize: 0x40 }
  - { offsetInCU: 0xE43D, offset: 0x2E695, size: 0x8, addend: 0x0, symName: __Z18safe_equals_helperim, symObjAddr: 0x40, symBinAddr: 0x100008C50, symSize: 0x40 }
  - { offsetInCU: 0xE47A, offset: 0x2E6D2, size: 0x8, addend: 0x0, symName: __Z22safe_not_equals_helpermi, symObjAddr: 0x80, symBinAddr: 0x100008C90, symSize: 0x40 }
  - { offsetInCU: 0xE4B7, offset: 0x2E70F, size: 0x8, addend: 0x0, symName: __Z22safe_not_equals_helperim, symObjAddr: 0xC0, symBinAddr: 0x100008CD0, symSize: 0x40 }
  - { offsetInCU: 0xE4F5, offset: 0x2E74D, size: 0x8, addend: 0x0, symName: __ZN8TestCase3runEb, symObjAddr: 0x100, symBinAddr: 0x100008D10, symSize: 0x400 }
  - { offsetInCU: 0xE5AF, offset: 0x2E807, size: 0x8, addend: 0x0, symName: __ZNSt3__119basic_ostringstreamIcNS_11char_traitsIcEENS_9allocatorIcEEEC1B8ue170006Ev, symObjAddr: 0x600, symBinAddr: 0x100009110, symSize: 0xE0 }
  - { offsetInCU: 0xE5D7, offset: 0x2E82F, size: 0x8, addend: 0x0, symName: __Z8demanglePKc, symObjAddr: 0x6E0, symBinAddr: 0x1000091F0, symSize: 0xC0 }
  - { offsetInCU: 0xE667, offset: 0x2E8BF, size: 0x8, addend: 0x0, symName: __ZNKSt9type_info4nameB8ue170006Ev, symObjAddr: 0x7A0, symBinAddr: 0x1000092B0, symSize: 0x20 }
  - { offsetInCU: 0xE6AC, offset: 0x2E904, size: 0x8, addend: 0x0, symName: __ZNKSt3__119basic_ostringstreamIcNS_11char_traitsIcEENS_9allocatorIcEEE3strB8ue170006Ev, symObjAddr: 0x7F0, symBinAddr: 0x100009300, symSize: 0x30 }
  - { offsetInCU: 0xE6D1, offset: 0x2E929, size: 0x8, addend: 0x0, symName: __ZNSt3__112basic_stringIcNS_11char_traitsIcEENS_9allocatorIcEEEaSB8ue170006EOS5_, symObjAddr: 0x820, symBinAddr: 0x100009330, symSize: 0x30 }
  - { offsetInCU: 0xE70A, offset: 0x2E962, size: 0x8, addend: 0x0, symName: __ZNSt3__119basic_ostringstreamIcNS_11char_traitsIcEENS_9allocatorIcEEED1Ev, symObjAddr: 0x850, symBinAddr: 0x100009360, symSize: 0x40 }
  - { offsetInCU: 0xE7CE, offset: 0x2EA26, size: 0x8, addend: 0x0, symName: __ZNK11TestFailure9to_stringEv, symObjAddr: 0x8A0, symBinAddr: 0x1000093A0, symSize: 0xC0 }
  - { offsetInCU: 0xE802, offset: 0x2EA5A, size: 0x8, addend: 0x0, symName: __ZN8TestCase5printEb, symObjAddr: 0x960, symBinAddr: 0x100009460, symSize: 0x180 }
  - { offsetInCU: 0xE837, offset: 0x2EA8F, size: 0x8, addend: 0x0, symName: __ZNKSt3__112basic_stringIcNS_11char_traitsIcEENS_9allocatorIcEEE5emptyB8ue170006Ev, symObjAddr: 0xAE0, symBinAddr: 0x1000095E0, symSize: 0x30 }
  - { offsetInCU: 0xE85C, offset: 0x2EAB4, size: 0x8, addend: 0x0, symName: __ZN9TestSuite9run_testsEiPPc, symObjAddr: 0xB10, symBinAddr: 0x100009610, symSize: 0x780 }
  - { offsetInCU: 0xEA62, offset: 0x2ECBA, size: 0x8, addend: 0x0, symName: __ZN11SetCompleteC1ERb, symObjAddr: 0x1290, symBinAddr: 0x100009D90, symSize: 0x30 }
  - { offsetInCU: 0xEA9A, offset: 0x2ECF2, size: 0x8, addend: 0x0, symName: __ZNSt3__16vectorINS_12basic_stringIcNS_11char_traitsIcEENS_9allocatorIcEEEENS4_IS6_EEEC1B8ue170006Ev, symObjAddr: 0x12C0, symBinAddr: 0x100009DC0, symSize: 0x20 }
  - { offsetInCU: 0xEAC3, offset: 0x2ED1B, size: 0x8, addend: 0x0, symName: __ZN9TestSuite21get_test_names_to_runEiPPc, symObjAddr: 0x12E0, symBinAddr: 0x100009DE0, symSize: 0x710 }
  - { offsetInCU: 0xEB55, offset: 0x2EDAD, size: 0x8, addend: 0x0, symName: __ZNSt3__16vectorINS_12basic_stringIcNS_11char_traitsIcEENS_9allocatorIcEEEENS4_IS6_EEEaSB8ue170006EOS8_, symObjAddr: 0x19F0, symBinAddr: 0x10000A4F0, symSize: 0x30 }
  - { offsetInCU: 0xEB8A, offset: 0x2EDE2, size: 0x8, addend: 0x0, symName: __ZNSt3__16vectorINS_12basic_stringIcNS_11char_traitsIcEENS_9allocatorIcEEEENS4_IS6_EEED1B8ue170006Ev, symObjAddr: 0x1A20, symBinAddr: 0x10000A520, symSize: 0x20 }
  - { offsetInCU: 0xEBB3, offset: 0x2EE0B, size: 0x8, addend: 0x0, symName: __ZNSt3__16vectorINS_12basic_stringIcNS_11char_traitsIcEENS_9allocatorIcEEEENS4_IS6_EEE5beginB8ue170006Ev, symObjAddr: 0x1A40, symBinAddr: 0x10000A540, symSize: 0x30 }
  - { offsetInCU: 0xEBD9, offset: 0x2EE31, size: 0x8, addend: 0x0, symName: __ZNSt3__16vectorINS_12basic_stringIcNS_11char_traitsIcEENS_9allocatorIcEEEENS4_IS6_EEE3endB8ue170006Ev, symObjAddr: 0x1A70, symBinAddr: 0x10000A570, symSize: 0x30 }
  - { offsetInCU: 0xEBFF, offset: 0x2EE57, size: 0x8, addend: 0x0, symName: __ZNKSt3__111__wrap_iterIPNS_12basic_stringIcNS_11char_traitsIcEENS_9allocatorIcEEEEEdeB8ue170006Ev, symObjAddr: 0x1AD0, symBinAddr: 0x10000A5D0, symSize: 0x20 }
  - { offsetInCU: 0xEC24, offset: 0x2EE7C, size: 0x8, addend: 0x0, symName: __ZNSt3__13mapINS_12basic_stringIcNS_11char_traitsIcEENS_9allocatorIcEEEE8TestCaseNS_4lessIS6_EENS4_INS_4pairIKS6_S7_EEEEE4findB8ue170006ERSB_, symObjAddr: 0x1B20, symBinAddr: 0x10000A620, symSize: 0x40 }
  - { offsetInCU: 0xEC58, offset: 0x2EEB0, size: 0x8, addend: 0x0, symName: __ZNSt3__111__wrap_iterIPNS_12basic_stringIcNS_11char_traitsIcEENS_9allocatorIcEEEEEppB8ue170006Ev, symObjAddr: 0x1BE0, symBinAddr: 0x10000A6E0, symSize: 0x20 }
  - { offsetInCU: 0xEC7D, offset: 0x2EED5, size: 0x8, addend: 0x0, symName: __ZNSt3__13mapINS_12basic_stringIcNS_11char_traitsIcEENS_9allocatorIcEEEE8TestCaseNS_4lessIS6_EENS4_INS_4pairIKS6_S7_EEEEE2atERSB_, symObjAddr: 0x1C00, symBinAddr: 0x10000A700, symSize: 0x60 }
  - { offsetInCU: 0xECD0, offset: 0x2EF28, size: 0x8, addend: 0x0, symName: __ZNSt3__13mapINS_12basic_stringIcNS_11char_traitsIcEENS_9allocatorIcEEEE8TestCaseNS_4lessIS6_EENS4_INS_4pairIKS6_S7_EEEEE5beginB8ue170006Ev, symObjAddr: 0x1D50, symBinAddr: 0x10000A850, symSize: 0x30 }
  - { offsetInCU: 0xECF5, offset: 0x2EF4D, size: 0x8, addend: 0x0, symName: __ZNSt3__13mapINS_12basic_stringIcNS_11char_traitsIcEENS_9allocatorIcEEEE8TestCaseNS_4lessIS6_EENS4_INS_4pairIKS6_S7_EEEEE3endB8ue170006Ev, symObjAddr: 0x1D80, symBinAddr: 0x10000A880, symSize: 0x30 }
  - { offsetInCU: 0xED1A, offset: 0x2EF72, size: 0x8, addend: 0x0, symName: __ZNKSt3__16vectorINS_12basic_stringIcNS_11char_traitsIcEENS_9allocatorIcEEEENS4_IS6_EEE4sizeB8ue170006Ev, symObjAddr: 0x1EA0, symBinAddr: 0x10000A9A0, symSize: 0x30 }
  - { offsetInCU: 0xED3F, offset: 0x2EF97, size: 0x8, addend: 0x0, symName: __ZN11SetCompleteD1Ev, symObjAddr: 0x1ED0, symBinAddr: 0x10000A9D0, symSize: 0x20 }
  - { offsetInCU: 0xED6D, offset: 0x2EFC5, size: 0x8, addend: 0x0, symName: __ZNSt3__112basic_stringIcNS_11char_traitsIcEENS_9allocatorIcEEEC1B8ue170006ILi0EEEPKc, symObjAddr: 0x1F80, symBinAddr: 0x10000AA80, symSize: 0x30 }
  - { offsetInCU: 0xEDAB, offset: 0x2F003, size: 0x8, addend: 0x0, symName: __ZN9TestSuite3getEv, symObjAddr: 0x1FB0, symBinAddr: 0x10000AAB0, symSize: 0x80 }
  - { offsetInCU: 0xEDBF, offset: 0x2F017, size: 0x8, addend: 0x0, symName: __ZN9TestSuite16print_test_namesERNSt3__113basic_ostreamIcNS0_11char_traitsIcEEEE, symObjAddr: 0x2030, symBinAddr: 0x10000AB30, symSize: 0x90 }
  - { offsetInCU: 0xEE95, offset: 0x2F0ED, size: 0x8, addend: 0x0, symName: __ZN9ExitSuiteC1Ei, symObjAddr: 0x20E0, symBinAddr: 0x10000ABE0, symSize: 0x30 }
  - { offsetInCU: 0xEECD, offset: 0x2F125, size: 0x8, addend: 0x0, symName: __ZN9ExitSuiteD1Ev, symObjAddr: 0x2110, symBinAddr: 0x10000AC10, symSize: 0x20 }
  - { offsetInCU: 0xEEF9, offset: 0x2F151, size: 0x8, addend: 0x0, symName: __ZN9TestSuite17enable_quiet_modeEv, symObjAddr: 0x2130, symBinAddr: 0x10000AC30, symSize: 0x20 }
  - { offsetInCU: 0xEF1E, offset: 0x2F176, size: 0x8, addend: 0x0, symName: __ZNSt3__16vectorINS_12basic_stringIcNS_11char_traitsIcEENS_9allocatorIcEEEENS4_IS6_EEE9push_backB8ue170006EOS6_, symObjAddr: 0x2150, symBinAddr: 0x10000AC50, symSize: 0x60 }
  - { offsetInCU: 0xEF53, offset: 0x2F1AB, size: 0x8, addend: 0x0, symName: __ZNKSt3__16vectorINS_12basic_stringIcNS_11char_traitsIcEENS_9allocatorIcEEEENS4_IS6_EEE5emptyB8ue170006Ev, symObjAddr: 0x21B0, symBinAddr: 0x10000ACB0, symSize: 0x20 }
  - { offsetInCU: 0xEF77, offset: 0x2F1CF, size: 0x8, addend: 0x0, symName: __ZlsRNSt3__113basic_ostreamIcNS_11char_traitsIcEEEERK11TestFailure, symObjAddr: 0x2360, symBinAddr: 0x10000AE60, symSize: 0x30 }
  - { offsetInCU: 0xEFB5, offset: 0x2F20D, size: 0x8, addend: 0x0, symName: __ZNK11TestFailure5printERNSt3__113basic_ostreamIcNS0_11char_traitsIcEEEE, symObjAddr: 0x2390, symBinAddr: 0x10000AE90, symSize: 0x90 }
  - { offsetInCU: 0xEFE7, offset: 0x2F23F, size: 0x8, addend: 0x0, symName: __Z11assert_truebiPKc, symObjAddr: 0x2420, symBinAddr: 0x10000AF20, symSize: 0x160 }
  - { offsetInCU: 0xF040, offset: 0x2F298, size: 0x8, addend: 0x0, symName: __ZN11TestFailureC1ENSt3__112basic_stringIcNS0_11char_traitsIcEENS0_9allocatorIcEEEEiPKc, symObjAddr: 0x2580, symBinAddr: 0x10000B080, symSize: 0x30 }
  - { offsetInCU: 0xF094, offset: 0x2F2EC, size: 0x8, addend: 0x0, symName: __ZN11TestFailureD1Ev, symObjAddr: 0x25B0, symBinAddr: 0x10000B0B0, symSize: 0x20 }
  - { offsetInCU: 0xF0BE, offset: 0x2F316, size: 0x8, addend: 0x0, symName: __Z12assert_falsebiPKc, symObjAddr: 0x25D0, symBinAddr: 0x10000B0D0, symSize: 0x160 }
  - { offsetInCU: 0xF116, offset: 0x2F36E, size: 0x8, addend: 0x0, symName: __Z19assert_almost_equaldddiPKc, symObjAddr: 0x2730, symBinAddr: 0x10000B230, symSize: 0x1F0 }
  - { offsetInCU: 0xF18C, offset: 0x2F3E4, size: 0x8, addend: 0x0, symName: __Z3absB8ue170006d, symObjAddr: 0x2920, symBinAddr: 0x10000B420, symSize: 0x20 }
  - { offsetInCU: 0xF1B9, offset: 0x2F411, size: 0x8, addend: 0x0, symName: __ZNSt3__18ios_base9precisionB8ue170006El, symObjAddr: 0x2940, symBinAddr: 0x10000B440, symSize: 0x30 }
  - { offsetInCU: 0xF1FD, offset: 0x2F455, size: 0x8, addend: 0x0, symName: __ZL24test_left_diagonal_clearv, symObjAddr: 0x2970, symBinAddr: 0x10000B470, symSize: 0x1A0 }
  - { offsetInCU: 0xF226, offset: 0x2F47E, size: 0x8, addend: 0x0, symName: __ZN14TestRegistererC1ERKNSt3__112basic_stringIcNS0_11char_traitsIcEENS0_9allocatorIcEEEEPFvvE, symObjAddr: 0x2B10, symBinAddr: 0x10000B610, symSize: 0x30 }
  - { offsetInCU: 0xF26B, offset: 0x2F4C3, size: 0x8, addend: 0x0, symName: __ZL25test_right_diagonal_clearv, symObjAddr: 0x2B40, symBinAddr: 0x10000B640, symSize: 0x1B0 }
  - { offsetInCU: 0xF294, offset: 0x2F4EC, size: 0x8, addend: 0x0, symName: _main, symObjAddr: 0x2CF0, symBinAddr: 0x10000B7F0, symSize: 0x30 }
  - { offsetInCU: 0xF2CB, offset: 0x2F523, size: 0x8, addend: 0x0, symName: __ZN18TestSuiteDestroyerD1Ev, symObjAddr: 0x2D20, symBinAddr: 0x10000B820, symSize: 0x20 }
  - { offsetInCU: 0xF2F4, offset: 0x2F54C, size: 0x8, addend: 0x0, symName: __ZNSt3__119basic_ostringstreamIcNS_11char_traitsIcEENS_9allocatorIcEEED2Ev, symObjAddr: 0x2D40, symBinAddr: 0x10000B840, symSize: 0x60 }
  - { offsetInCU: 0xF32C, offset: 0x2F584, size: 0x8, addend: 0x0, symName: __ZTv0_n24_NSt3__119basic_ostringstreamIcNS_11char_traitsIcEENS_9allocatorIcEEED1Ev, symObjAddr: 0x2DA0, symBinAddr: 0x10000B8A0, symSize: 0x20 }
  - { offsetInCU: 0xF348, offset: 0x2F5A0, size: 0x8, addend: 0x0, symName: __ZNSt3__115basic_stringbufIcNS_11char_traitsIcEENS_9allocatorIcEEED1Ev, symObjAddr: 0x2DC0, symBinAddr: 0x10000B8C0, symSize: 0x20 }
  - { offsetInCU: 0xF374, offset: 0x2F5CC, size: 0x8, addend: 0x0, symName: __ZNSt3__115basic_stringbufIcNS_11char_traitsIcEENS_9allocatorIcEEED2Ev, symObjAddr: 0x2DE0, symBinAddr: 0x10000B8E0, symSize: 0x40 }
  - { offsetInCU: 0xF3A0, offset: 0x2F5F8, size: 0x8, addend: 0x0, symName: __ZN11SetCompleteC2ERb, symObjAddr: 0x2E20, symBinAddr: 0x10000B920, symSize: 0x20 }
  - { offsetInCU: 0xF3D8, offset: 0x2F630, size: 0x8, addend: 0x0, symName: __ZNKSt3__111__wrap_iterIPNS_12basic_stringIcNS_11char_traitsIcEENS_9allocatorIcEEEEE4baseB8ue170006Ev, symObjAddr: 0x2E80, symBinAddr: 0x10000B980, symSize: 0x20 }
  - { offsetInCU: 0xF3FD, offset: 0x2F655, size: 0x8, addend: 0x0, symName: __ZN11SetCompleteD2Ev, symObjAddr: 0x2EA0, symBinAddr: 0x10000B9A0, symSize: 0x20 }
  - { offsetInCU: 0xF426, offset: 0x2F67E, size: 0x8, addend: 0x0, symName: __ZN9TestSuiteC1Ev, symObjAddr: 0x2EC0, symBinAddr: 0x10000B9C0, symSize: 0x20 }
  - { offsetInCU: 0xF44F, offset: 0x2F6A7, size: 0x8, addend: 0x0, symName: __ZN9TestSuiteC2Ev, symObjAddr: 0x2EE0, symBinAddr: 0x10000B9E0, symSize: 0x60 }
  - { offsetInCU: 0xF4B8, offset: 0x2F710, size: 0x8, addend: 0x0, symName: __ZNSt3__13mapINS_12basic_stringIcNS_11char_traitsIcEENS_9allocatorIcEEEE8TestCaseNS_4lessIS6_EENS4_INS_4pairIKS6_S7_EEEEEC1B8ue170006Ev, symObjAddr: 0x2F40, symBinAddr: 0x10000BA40, symSize: 0x20 }
  - { offsetInCU: 0xF4EB, offset: 0x2F743, size: 0x8, addend: 0x0, symName: __ZZN9TestSuiteC1EvENKUlvE_cvPFvvEEv, symObjAddr: 0x2F60, symBinAddr: 0x10000BA60, symSize: 0x20 }
  - { offsetInCU: 0xF516, offset: 0x2F76E, size: 0x8, addend: 0x0, symName: __ZNSt3__13mapINS_12basic_stringIcNS_11char_traitsIcEENS_9allocatorIcEEEE8TestCaseNS_4lessIS6_EENS4_INS_4pairIKS6_S7_EEEEED1B8ue170006Ev, symObjAddr: 0x2F80, symBinAddr: 0x10000BA80, symSize: 0x20 }
  - { offsetInCU: 0xF53F, offset: 0x2F797, size: 0x8, addend: 0x0, symName: __ZNSt3__13mapINS_12basic_stringIcNS_11char_traitsIcEENS_9allocatorIcEEEE8TestCaseNS_4lessIS6_EENS4_INS_4pairIKS6_S7_EEEEEC2B8ue170006Ev, symObjAddr: 0x2FA0, symBinAddr: 0x10000BAA0, symSize: 0x30 }
  - { offsetInCU: 0xF568, offset: 0x2F7C0, size: 0x8, addend: 0x0, symName: __ZNSt3__119__map_value_compareINS_12basic_stringIcNS_11char_traitsIcEENS_9allocatorIcEEEENS_12__value_typeIS6_8TestCaseEENS_4lessIS6_EELb1EEC1B8ue170006ESB_, symObjAddr: 0x2FD0, symBinAddr: 0x10000BAD0, symSize: 0x20 }
  - { offsetInCU: 0xF5A0, offset: 0x2F7F8, size: 0x8, addend: 0x0, symName: __ZNSt3__16__treeINS_12__value_typeINS_12basic_stringIcNS_11char_traitsIcEENS_9allocatorIcEEEE8TestCaseEENS_19__map_value_compareIS7_S9_NS_4lessIS7_EELb1EEENS5_IS9_EEEC1ERKSD_, symObjAddr: 0x2FF0, symBinAddr: 0x10000BAF0, symSize: 0x30 }
  - { offsetInCU: 0xF5DA, offset: 0x2F832, size: 0x8, addend: 0x0, symName: __ZNSt3__119__map_value_compareINS_12basic_stringIcNS_11char_traitsIcEENS_9allocatorIcEEEENS_12__value_typeIS6_8TestCaseEENS_4lessIS6_EELb1EEC2B8ue170006ESB_, symObjAddr: 0x3020, symBinAddr: 0x10000BB20, symSize: 0x10 }
  - { offsetInCU: 0xF612, offset: 0x2F86A, size: 0x8, addend: 0x0, symName: __ZNSt3__16__treeINS_12__value_typeINS_12basic_stringIcNS_11char_traitsIcEENS_9allocatorIcEEEE8TestCaseEENS_19__map_value_compareIS7_S9_NS_4lessIS7_EELb1EEENS5_IS9_EEEC2ERKSD_, symObjAddr: 0x3030, symBinAddr: 0x10000BB30, symSize: 0x80 }
  - { offsetInCU: 0xF64C, offset: 0x2F8A4, size: 0x8, addend: 0x0, symName: __ZNSt3__117__compressed_pairINS_15__tree_end_nodeIPNS_16__tree_node_baseIPvEEEENS_9allocatorINS_11__tree_nodeINS_12__value_typeINS_12basic_stringIcNS_11char_traitsIcEENS7_IcEEEE8TestCaseEES3_EEEEEC1B8ue170006ILb1EvEEv, symObjAddr: 0x30B0, symBinAddr: 0x10000BBB0, symSize: 0x20 }
  - { offsetInCU: 0xF685, offset: 0x2F8DD, size: 0x8, addend: 0x0, symName: __ZNSt3__117__compressed_pairImNS_19__map_value_compareINS_12basic_stringIcNS_11char_traitsIcEENS_9allocatorIcEEEENS_12__value_typeIS7_8TestCaseEENS_4lessIS7_EELb1EEEEC1B8ue170006IiRKSD_EEOT_OT0_, symObjAddr: 0x30D0, symBinAddr: 0x10000BBD0, symSize: 0x30 }
  - { offsetInCU: 0xF6DC, offset: 0x2F934, size: 0x8, addend: 0x0, symName: __ZNSt3__16__treeINS_12__value_typeINS_12basic_stringIcNS_11char_traitsIcEENS_9allocatorIcEEEE8TestCaseEENS_19__map_value_compareIS7_S9_NS_4lessIS7_EELb1EEENS5_IS9_EEE10__end_nodeB8ue170006Ev, symObjAddr: 0x3100, symBinAddr: 0x10000BC00, symSize: 0x30 }
  - { offsetInCU: 0xF701, offset: 0x2F959, size: 0x8, addend: 0x0, symName: __ZNSt3__16__treeINS_12__value_typeINS_12basic_stringIcNS_11char_traitsIcEENS_9allocatorIcEEEE8TestCaseEENS_19__map_value_compareIS7_S9_NS_4lessIS7_EELb1EEENS5_IS9_EEE12__begin_nodeB8ue170006Ev, symObjAddr: 0x3130, symBinAddr: 0x10000BC30, symSize: 0x10 }
  - { offsetInCU: 0xF726, offset: 0x2F97E, size: 0x8, addend: 0x0, symName: __ZNSt3__117__compressed_pairINS_15__tree_end_nodeIPNS_16__tree_node_baseIPvEEEENS_9allocatorINS_11__tree_nodeINS_12__value_typeINS_12basic_stringIcNS_11char_traitsIcEENS7_IcEEEE8TestCaseEES3_EEEEEC2B8ue170006ILb1EvEEv, symObjAddr: 0x3140, symBinAddr: 0x10000BC40, symSize: 0x30 }
  - { offsetInCU: 0xF75A, offset: 0x2F9B2, size: 0x8, addend: 0x0, symName: __ZNSt3__122__compressed_pair_elemINS_15__tree_end_nodeIPNS_16__tree_node_baseIPvEEEELi0ELb0EEC2B8ue170006ENS_16__value_init_tagE, symObjAddr: 0x3170, symBinAddr: 0x10000BC70, symSize: 0x20 }
  - { offsetInCU: 0xF78D, offset: 0x2F9E5, size: 0x8, addend: 0x0, symName: __ZNSt3__122__compressed_pair_elemINS_9allocatorINS_11__tree_nodeINS_12__value_typeINS_12basic_stringIcNS_11char_traitsIcEENS1_IcEEEE8TestCaseEEPvEEEELi1ELb1EEC2B8ue170006ENS_16__value_init_tagE, symObjAddr: 0x3190, symBinAddr: 0x10000BC90, symSize: 0x20 }
  - { offsetInCU: 0xF7C0, offset: 0x2FA18, size: 0x8, addend: 0x0, symName: __ZNSt3__115__tree_end_nodeIPNS_16__tree_node_baseIPvEEEC1B8ue170006Ev, symObjAddr: 0x31B0, symBinAddr: 0x10000BCB0, symSize: 0x20 }
  - { offsetInCU: 0xF7E9, offset: 0x2FA41, size: 0x8, addend: 0x0, symName: __ZNSt3__115__tree_end_nodeIPNS_16__tree_node_baseIPvEEEC2B8ue170006Ev, symObjAddr: 0x31D0, symBinAddr: 0x10000BCD0, symSize: 0x20 }
  - { offsetInCU: 0xF812, offset: 0x2FA6A, size: 0x8, addend: 0x0, symName: __ZNSt3__19allocatorINS_11__tree_nodeINS_12__value_typeINS_12basic_stringIcNS_11char_traitsIcEENS0_IcEEEE8TestCaseEEPvEEEC2B8ue170006Ev, symObjAddr: 0x31F0, symBinAddr: 0x10000BCF0, symSize: 0x20 }
  - { offsetInCU: 0xF83B, offset: 0x2FA93, size: 0x8, addend: 0x0, symName: __ZNSt3__116__non_trivial_ifILb1ENS_9allocatorINS_11__tree_nodeINS_12__value_typeINS_12basic_stringIcNS_11char_traitsIcEENS1_IcEEEE8TestCaseEEPvEEEEEC2B8ue170006Ev, symObjAddr: 0x3210, symBinAddr: 0x10000BD10, symSize: 0x10 }
  - { offsetInCU: 0xF864, offset: 0x2FABC, size: 0x8, addend: 0x0, symName: __ZNSt3__117__compressed_pairImNS_19__map_value_compareINS_12basic_stringIcNS_11char_traitsIcEENS_9allocatorIcEEEENS_12__value_typeIS7_8TestCaseEENS_4lessIS7_EELb1EEEEC2B8ue170006IiRKSD_EEOT_OT0_, symObjAddr: 0x3220, symBinAddr: 0x10000BD20, symSize: 0x40 }
  - { offsetInCU: 0xF8BB, offset: 0x2FB13, size: 0x8, addend: 0x0, symName: __ZNSt3__122__compressed_pair_elemINS_19__map_value_compareINS_12basic_stringIcNS_11char_traitsIcEENS_9allocatorIcEEEENS_12__value_typeIS7_8TestCaseEENS_4lessIS7_EELb1EEELi1ELb1EEC2B8ue170006IRKSD_vEEOT_, symObjAddr: 0x3280, symBinAddr: 0x10000BD60, symSize: 0x10 }
  - { offsetInCU: 0xF8FC, offset: 0x2FB54, size: 0x8, addend: 0x0, symName: __ZNSt3__114pointer_traitsIPNS_15__tree_end_nodeIPNS_16__tree_node_baseIPvEEEEE10pointer_toB8ue170006ERS6_, symObjAddr: 0x3290, symBinAddr: 0x10000BD70, symSize: 0x10 }
  - { offsetInCU: 0xF91F, offset: 0x2FB77, size: 0x8, addend: 0x0, symName: __ZNSt3__117__compressed_pairINS_15__tree_end_nodeIPNS_16__tree_node_baseIPvEEEENS_9allocatorINS_11__tree_nodeINS_12__value_typeINS_12basic_stringIcNS_11char_traitsIcEENS7_IcEEEE8TestCaseEES3_EEEEE5firstB8ue170006Ev, symObjAddr: 0x32A0, symBinAddr: 0x10000BD80, symSize: 0x20 }
  - { offsetInCU: 0xF944, offset: 0x2FB9C, size: 0x8, addend: 0x0, symName: __ZNSt3__122__compressed_pair_elemINS_15__tree_end_nodeIPNS_16__tree_node_baseIPvEEEELi0ELb0EE5__getB8ue170006Ev, symObjAddr: 0x32C0, symBinAddr: 0x10000BDA0, symSize: 0x10 }
  - { offsetInCU: 0xF969, offset: 0x2FBC1, size: 0x8, addend: 0x0, symName: __ZZN9TestSuiteC1EvENUlvE_8__invokeEv, symObjAddr: 0x32D0, symBinAddr: 0x10000BDB0, symSize: 0x20 }
  - { offsetInCU: 0xF983, offset: 0x2FBDB, size: 0x8, addend: 0x0, symName: __ZZN9TestSuiteC1EvENKUlvE_clEv, symObjAddr: 0x32F0, symBinAddr: 0x10000BDD0, symSize: 0x50 }
  - { offsetInCU: 0xF9AC, offset: 0x2FC04, size: 0x8, addend: 0x0, symName: __ZNSt3__13mapINS_12basic_stringIcNS_11char_traitsIcEENS_9allocatorIcEEEE8TestCaseNS_4lessIS6_EENS4_INS_4pairIKS6_S7_EEEEED2B8ue170006Ev, symObjAddr: 0x3340, symBinAddr: 0x10000BE20, symSize: 0x20 }
  - { offsetInCU: 0xF9D5, offset: 0x2FC2D, size: 0x8, addend: 0x0, symName: __ZNSt3__16__treeINS_12__value_typeINS_12basic_stringIcNS_11char_traitsIcEENS_9allocatorIcEEEE8TestCaseEENS_19__map_value_compareIS7_S9_NS_4lessIS7_EELb1EEENS5_IS9_EEED1Ev, symObjAddr: 0x3360, symBinAddr: 0x10000BE40, symSize: 0x20 }
  - { offsetInCU: 0xFA00, offset: 0x2FC58, size: 0x8, addend: 0x0, symName: __ZNSt3__16__treeINS_12__value_typeINS_12basic_stringIcNS_11char_traitsIcEENS_9allocatorIcEEEE8TestCaseEENS_19__map_value_compareIS7_S9_NS_4lessIS7_EELb1EEENS5_IS9_EEED2Ev, symObjAddr: 0x3380, symBinAddr: 0x10000BE60, symSize: 0x30 }
  - { offsetInCU: 0xFA2B, offset: 0x2FC83, size: 0x8, addend: 0x0, symName: __ZNSt3__16__treeINS_12__value_typeINS_12basic_stringIcNS_11char_traitsIcEENS_9allocatorIcEEEE8TestCaseEENS_19__map_value_compareIS7_S9_NS_4lessIS7_EELb1EEENS5_IS9_EEE7destroyEPNS_11__tree_nodeIS9_PvEE, symObjAddr: 0x33B0, symBinAddr: 0x10000BE90, symSize: 0xB0 }
  - { offsetInCU: 0xFA75, offset: 0x2FCCD, size: 0x8, addend: 0x0, symName: __ZNKSt3__16__treeINS_12__value_typeINS_12basic_stringIcNS_11char_traitsIcEENS_9allocatorIcEEEE8TestCaseEENS_19__map_value_compareIS7_S9_NS_4lessIS7_EELb1EEENS5_IS9_EEE6__rootB8ue170006Ev, symObjAddr: 0x3460, symBinAddr: 0x10000BF40, symSize: 0x20 }
  - { offsetInCU: 0xFA9A, offset: 0x2FCF2, size: 0x8, addend: 0x0, symName: __ZNSt3__16__treeINS_12__value_typeINS_12basic_stringIcNS_11char_traitsIcEENS_9allocatorIcEEEE8TestCaseEENS_19__map_value_compareIS7_S9_NS_4lessIS7_EELb1EEENS5_IS9_EEE12__node_allocB8ue170006Ev, symObjAddr: 0x3480, symBinAddr: 0x10000BF60, symSize: 0x20 }
  - { offsetInCU: 0xFABF, offset: 0x2FD17, size: 0x8, addend: 0x0, symName: __ZNSt3__116allocator_traitsINS_9allocatorINS_11__tree_nodeINS_12__value_typeINS_12basic_stringIcNS_11char_traitsIcEENS1_IcEEEE8TestCaseEEPvEEEEE7destroyB8ue170006INS_4pairIKS8_S9_EEvvEEvRSD_PT_, symObjAddr: 0x34A0, symBinAddr: 0x10000BF80, symSize: 0x20 }
  - { offsetInCU: 0xFAF9, offset: 0x2FD51, size: 0x8, addend: 0x0, symName: __ZNSt3__122__tree_key_value_typesINS_12__value_typeINS_12basic_stringIcNS_11char_traitsIcEENS_9allocatorIcEEEE8TestCaseEEE9__get_ptrB8ue170006ERS9_, symObjAddr: 0x34C0, symBinAddr: 0x10000BFA0, symSize: 0x20 }
  - { offsetInCU: 0xFB1D, offset: 0x2FD75, size: 0x8, addend: 0x0, symName: __ZNSt3__116allocator_traitsINS_9allocatorINS_11__tree_nodeINS_12__value_typeINS_12basic_stringIcNS_11char_traitsIcEENS1_IcEEEE8TestCaseEEPvEEEEE10deallocateB8ue170006ERSD_PSC_m, symObjAddr: 0x34E0, symBinAddr: 0x10000BFC0, symSize: 0x30 }
  - { offsetInCU: 0xFB5F, offset: 0x2FDB7, size: 0x8, addend: 0x0, symName: __ZNSt3__117__compressed_pairINS_15__tree_end_nodeIPNS_16__tree_node_baseIPvEEEENS_9allocatorINS_11__tree_nodeINS_12__value_typeINS_12basic_stringIcNS_11char_traitsIcEENS7_IcEEEE8TestCaseEES3_EEEEE6secondB8ue170006Ev, symObjAddr: 0x3510, symBinAddr: 0x10000BFF0, symSize: 0x20 }
  - { offsetInCU: 0xFB84, offset: 0x2FDDC, size: 0x8, addend: 0x0, symName: __ZNSt3__122__compressed_pair_elemINS_9allocatorINS_11__tree_nodeINS_12__value_typeINS_12basic_stringIcNS_11char_traitsIcEENS1_IcEEEE8TestCaseEEPvEEEELi1ELb1EE5__getB8ue170006Ev, symObjAddr: 0x3530, symBinAddr: 0x10000C010, symSize: 0x10 }
  - { offsetInCU: 0xFBA9, offset: 0x2FE01, size: 0x8, addend: 0x0, symName: __ZNSt3__14pairIKNS_12basic_stringIcNS_11char_traitsIcEENS_9allocatorIcEEEE8TestCaseED1Ev, symObjAddr: 0x3540, symBinAddr: 0x10000C020, symSize: 0x20 }
  - { offsetInCU: 0xFBD4, offset: 0x2FE2C, size: 0x8, addend: 0x0, symName: __ZNSt3__14pairIKNS_12basic_stringIcNS_11char_traitsIcEENS_9allocatorIcEEEE8TestCaseED2Ev, symObjAddr: 0x3560, symBinAddr: 0x10000C040, symSize: 0x30 }
  - { offsetInCU: 0xFBFF, offset: 0x2FE57, size: 0x8, addend: 0x0, symName: __ZN8TestCaseD1Ev, symObjAddr: 0x3590, symBinAddr: 0x10000C070, symSize: 0x20 }
  - { offsetInCU: 0xFC2A, offset: 0x2FE82, size: 0x8, addend: 0x0, symName: __ZN8TestCaseD2Ev, symObjAddr: 0x35B0, symBinAddr: 0x10000C090, symSize: 0x40 }
  - { offsetInCU: 0xFC55, offset: 0x2FEAD, size: 0x8, addend: 0x0, symName: __ZNSt3__112__value_typeINS_12basic_stringIcNS_11char_traitsIcEENS_9allocatorIcEEEE8TestCaseE11__get_valueB8ue170006Ev, symObjAddr: 0x35F0, symBinAddr: 0x10000C0D0, symSize: 0x10 }
  - { offsetInCU: 0xFC7A, offset: 0x2FED2, size: 0x8, addend: 0x0, symName: __ZNSt3__19allocatorINS_11__tree_nodeINS_12__value_typeINS_12basic_stringIcNS_11char_traitsIcEENS0_IcEEEE8TestCaseEEPvEEE10deallocateB8ue170006EPSB_m, symObjAddr: 0x3600, symBinAddr: 0x10000C0E0, symSize: 0x50 }
  - { offsetInCU: 0xFCBB, offset: 0x2FF13, size: 0x8, addend: 0x0, symName: __ZNKSt3__16__treeINS_12__value_typeINS_12basic_stringIcNS_11char_traitsIcEENS_9allocatorIcEEEE8TestCaseEENS_19__map_value_compareIS7_S9_NS_4lessIS7_EELb1EEENS5_IS9_EEE10__end_nodeB8ue170006Ev, symObjAddr: 0x36C0, symBinAddr: 0x10000C130, symSize: 0x30 }
  - { offsetInCU: 0xFCE0, offset: 0x2FF38, size: 0x8, addend: 0x0, symName: __ZNKSt3__117__compressed_pairINS_15__tree_end_nodeIPNS_16__tree_node_baseIPvEEEENS_9allocatorINS_11__tree_nodeINS_12__value_typeINS_12basic_stringIcNS_11char_traitsIcEENS7_IcEEEE8TestCaseEES3_EEEEE5firstB8ue170006Ev, symObjAddr: 0x36F0, symBinAddr: 0x10000C160, symSize: 0x20 }
  - { offsetInCU: 0xFD05, offset: 0x2FF5D, size: 0x8, addend: 0x0, symName: __ZNKSt3__122__compressed_pair_elemINS_15__tree_end_nodeIPNS_16__tree_node_baseIPvEEEELi0ELb0EE5__getB8ue170006Ev, symObjAddr: 0x3710, symBinAddr: 0x10000C180, symSize: 0x10 }
  - { offsetInCU: 0xFD2A, offset: 0x2FF82, size: 0x8, addend: 0x0, symName: __ZNKSt3__114__map_iteratorINS_15__tree_iteratorINS_12__value_typeINS_12basic_stringIcNS_11char_traitsIcEENS_9allocatorIcEEEE8TestCaseEEPNS_11__tree_nodeISA_PvEElEEEdeB8ue170006Ev, symObjAddr: 0x3750, symBinAddr: 0x10000C1C0, symSize: 0x30 }
  - { offsetInCU: 0xFD4F, offset: 0x2FFA7, size: 0x8, addend: 0x0, symName: __ZNSt3__114__map_iteratorINS_15__tree_iteratorINS_12__value_typeINS_12basic_stringIcNS_11char_traitsIcEENS_9allocatorIcEEEE8TestCaseEEPNS_11__tree_nodeISA_PvEElEEEppB8ue170006Ev, symObjAddr: 0x3780, symBinAddr: 0x10000C1F0, symSize: 0x30 }
  - { offsetInCU: 0xFD74, offset: 0x2FFCC, size: 0x8, addend: 0x0, symName: __ZNKSt3__115__tree_iteratorINS_12__value_typeINS_12basic_stringIcNS_11char_traitsIcEENS_9allocatorIcEEEE8TestCaseEEPNS_11__tree_nodeIS9_PvEElEptB8ue170006Ev, symObjAddr: 0x3810, symBinAddr: 0x10000C280, symSize: 0x30 }
  - { offsetInCU: 0xFD99, offset: 0x2FFF1, size: 0x8, addend: 0x0, symName: __ZNSt3__114pointer_traitsIPNS_12__value_typeINS_12basic_stringIcNS_11char_traitsIcEENS_9allocatorIcEEEE8TestCaseEEE10pointer_toB8ue170006ERS9_, symObjAddr: 0x3840, symBinAddr: 0x10000C2B0, symSize: 0x10 }
  - { offsetInCU: 0xFDBC, offset: 0x30014, size: 0x8, addend: 0x0, symName: __ZNKSt3__115__tree_iteratorINS_12__value_typeINS_12basic_stringIcNS_11char_traitsIcEENS_9allocatorIcEEEE8TestCaseEEPNS_11__tree_nodeIS9_PvEElE8__get_npB8ue170006Ev, symObjAddr: 0x3850, symBinAddr: 0x10000C2C0, symSize: 0x20 }
  - { offsetInCU: 0xFDE1, offset: 0x30039, size: 0x8, addend: 0x0, symName: __ZNSt3__115__tree_iteratorINS_12__value_typeINS_12basic_stringIcNS_11char_traitsIcEENS_9allocatorIcEEEE8TestCaseEEPNS_11__tree_nodeIS9_PvEElEppB8ue170006Ev, symObjAddr: 0x3870, symBinAddr: 0x10000C2E0, symSize: 0x30 }
  - { offsetInCU: 0xFE06, offset: 0x3005E, size: 0x8, addend: 0x0, symName: __ZNKSt3__116__tree_node_baseIPvE15__parent_unsafeB8ue170006Ev, symObjAddr: 0x3990, symBinAddr: 0x10000C400, symSize: 0x20 }
  - { offsetInCU: 0xFE2B, offset: 0x30083, size: 0x8, addend: 0x0, symName: __ZN9ExitSuiteC2Ei, symObjAddr: 0x39B0, symBinAddr: 0x10000C420, symSize: 0x40 }
  - { offsetInCU: 0xFE63, offset: 0x300BB, size: 0x8, addend: 0x0, symName: __ZNSt9exceptionC2B8ue170006Ev, symObjAddr: 0x39F0, symBinAddr: 0x10000C460, symSize: 0x20 }
  - { offsetInCU: 0xFE8C, offset: 0x300E4, size: 0x8, addend: 0x0, symName: __ZN9ExitSuiteD0Ev, symObjAddr: 0x3A10, symBinAddr: 0x10000C480, symSize: 0x30 }
  - { offsetInCU: 0xFEB8, offset: 0x30110, size: 0x8, addend: 0x0, symName: __ZN9ExitSuiteD2Ev, symObjAddr: 0x3A40, symBinAddr: 0x10000C4B0, symSize: 0x20 }
  - { offsetInCU: 0xFEE4, offset: 0x3013C, size: 0x8, addend: 0x0, symName: __ZN11TestFailureC2ENSt3__112basic_stringIcNS0_11char_traitsIcEENS0_9allocatorIcEEEEiPKc, symObjAddr: 0x3A60, symBinAddr: 0x10000C4D0, symSize: 0x40 }
  - { offsetInCU: 0xFF38, offset: 0x30190, size: 0x8, addend: 0x0, symName: __ZNSt3__112basic_stringIcNS_11char_traitsIcEENS_9allocatorIcEEEC1B8ue170006EOS5_, symObjAddr: 0x3AA0, symBinAddr: 0x10000C510, symSize: 0x30 }
  - { offsetInCU: 0xFF70, offset: 0x301C8, size: 0x8, addend: 0x0, symName: __ZNSt3__112basic_stringIcNS_11char_traitsIcEENS_9allocatorIcEEEC2B8ue170006EOS5_, symObjAddr: 0x3AD0, symBinAddr: 0x10000C540, symSize: 0x50 }
  - { offsetInCU: 0xFFA8, offset: 0x30200, size: 0x8, addend: 0x0, symName: __ZNSt3__112basic_stringIcNS_11char_traitsIcEENS_9allocatorIcEEE14__default_initB8ue170006Ev, symObjAddr: 0x3B20, symBinAddr: 0x10000C590, symSize: 0x50 }
  - { offsetInCU: 0xFFCD, offset: 0x30225, size: 0x8, addend: 0x0, symName: __ZNSt3__117__compressed_pairINS_12basic_stringIcNS_11char_traitsIcEENS_9allocatorIcEEE5__repES5_E5firstB8ue170006Ev, symObjAddr: 0x3B70, symBinAddr: 0x10000C5E0, symSize: 0x20 }
  - { offsetInCU: 0xFFF2, offset: 0x3024A, size: 0x8, addend: 0x0, symName: __ZNSt3__122__compressed_pair_elemINS_12basic_stringIcNS_11char_traitsIcEENS_9allocatorIcEEE5__repELi0ELb0EE5__getB8ue170006Ev, symObjAddr: 0x3B90, symBinAddr: 0x10000C600, symSize: 0x10 }
  - { offsetInCU: 0x10017, offset: 0x3026F, size: 0x8, addend: 0x0, symName: __ZN11TestFailureD2Ev, symObjAddr: 0x3BA0, symBinAddr: 0x10000C610, symSize: 0x20 }
  - { offsetInCU: 0x10042, offset: 0x3029A, size: 0x8, addend: 0x0, symName: __ZN14TestRegistererC2ERKNSt3__112basic_stringIcNS0_11char_traitsIcEENS0_9allocatorIcEEEEPFvvE, symObjAddr: 0x3BC0, symBinAddr: 0x10000C630, symSize: 0x30 }
  - { offsetInCU: 0x10087, offset: 0x302DF, size: 0x8, addend: 0x0, symName: __ZN9TestSuite8add_testERKNSt3__112basic_stringIcNS0_11char_traitsIcEENS0_9allocatorIcEEEEPFvvE, symObjAddr: 0x3BF0, symBinAddr: 0x10000C660, symSize: 0x110 }
  - { offsetInCU: 0x100C8, offset: 0x30320, size: 0x8, addend: 0x0, symName: __ZNSt3__13mapINS_12basic_stringIcNS_11char_traitsIcEENS_9allocatorIcEEEE8TestCaseNS_4lessIS6_EENS4_INS_4pairIKS6_S7_EEEEE6insertB8ue170006EOSC_, symObjAddr: 0x3D00, symBinAddr: 0x10000C770, symSize: 0x40 }
  - { offsetInCU: 0x100FC, offset: 0x30354, size: 0x8, addend: 0x0, symName: __ZN8TestCaseC1ERKNSt3__112basic_stringIcNS0_11char_traitsIcEENS0_9allocatorIcEEEEPFvvE, symObjAddr: 0x3D40, symBinAddr: 0x10000C7B0, symSize: 0x30 }
  - { offsetInCU: 0x10146, offset: 0x3039E, size: 0x8, addend: 0x0, symName: __ZNSt3__14pairIKNS_12basic_stringIcNS_11char_traitsIcEENS_9allocatorIcEEEE8TestCaseEC1B8ue170006IRS7_S8_LPv0EEEOT_OT0_, symObjAddr: 0x3D70, symBinAddr: 0x10000C7E0, symSize: 0x30 }
  - { offsetInCU: 0x101A3, offset: 0x303FB, size: 0x8, addend: 0x0, symName: __ZNSt3__16__treeINS_12__value_typeINS_12basic_stringIcNS_11char_traitsIcEENS_9allocatorIcEEEE8TestCaseEENS_19__map_value_compareIS7_S9_NS_4lessIS7_EELb1EEENS5_IS9_EEE15__insert_uniqueB8ue170006EONS_4pairIKS7_S8_EE, symObjAddr: 0x3DA0, symBinAddr: 0x10000C810, symSize: 0x50 }
  - { offsetInCU: 0x101D7, offset: 0x3042F, size: 0x8, addend: 0x0, symName: __ZNSt3__14pairINS_14__map_iteratorINS_15__tree_iteratorINS_12__value_typeINS_12basic_stringIcNS_11char_traitsIcEENS_9allocatorIcEEEE8TestCaseEEPNS_11__tree_nodeISB_PvEElEEEEbEC1B8ue170006ISG_bLSD_0EEEONS0_IT_T0_EE, symObjAddr: 0x3DF0, symBinAddr: 0x10000C860, symSize: 0x30 }
  - { offsetInCU: 0x10227, offset: 0x3047F, size: 0x8, addend: 0x0, symName: __ZNSt3__16__treeINS_12__value_typeINS_12basic_stringIcNS_11char_traitsIcEENS_9allocatorIcEEEE8TestCaseEENS_19__map_value_compareIS7_S9_NS_4lessIS7_EELb1EEENS5_IS9_EEE25__emplace_unique_key_argsIS7_JNS_4pairIKS7_S8_EEEEENSH_INS_15__tree_iteratorIS9_PNS_11__tree_nodeIS9_PvEElEEbEERKT_DpOT0_, symObjAddr: 0x3E20, symBinAddr: 0x10000C890, symSize: 0xE0 }
  - { offsetInCU: 0x102DA, offset: 0x30532, size: 0x8, addend: 0x0, symName: __ZNSt3__122__tree_key_value_typesINS_12__value_typeINS_12basic_stringIcNS_11char_traitsIcEENS_9allocatorIcEEEE8TestCaseEEE9__get_keyB8ue170006INS_4pairIKS7_S8_EEEENS_9enable_ifIXsr17__is_same_uncvrefIT_SE_EE5valueERSD_E4typeERSG_, symObjAddr: 0x3F00, symBinAddr: 0x10000C970, symSize: 0x10 }
  - { offsetInCU: 0x10307, offset: 0x3055F, size: 0x8, addend: 0x0, symName: __ZNSt3__16__treeINS_12__value_typeINS_12basic_stringIcNS_11char_traitsIcEENS_9allocatorIcEEEE8TestCaseEENS_19__map_value_compareIS7_S9_NS_4lessIS7_EELb1EEENS5_IS9_EEE12__find_equalIS7_EERPNS_16__tree_node_baseIPvEERPNS_15__tree_end_nodeISK_EERKT_, symObjAddr: 0x3F10, symBinAddr: 0x10000C980, symSize: 0x180 }
  - { offsetInCU: 0x10372, offset: 0x305CA, size: 0x8, addend: 0x0, symName: __ZNSt3__16__treeINS_12__value_typeINS_12basic_stringIcNS_11char_traitsIcEENS_9allocatorIcEEEE8TestCaseEENS_19__map_value_compareIS7_S9_NS_4lessIS7_EELb1EEENS5_IS9_EEE16__construct_nodeIJNS_4pairIKS7_S8_EEEEENS_10unique_ptrINS_11__tree_nodeIS9_PvEENS_22__tree_node_destructorINS5_ISN_EEEEEEDpOT_, symObjAddr: 0x4090, symBinAddr: 0x10000CB00, symSize: 0x100 }
  - { offsetInCU: 0x103D1, offset: 0x30629, size: 0x8, addend: 0x0, symName: __ZNSt3__16__treeINS_12__value_typeINS_12basic_stringIcNS_11char_traitsIcEENS_9allocatorIcEEEE8TestCaseEENS_19__map_value_compareIS7_S9_NS_4lessIS7_EELb1EEENS5_IS9_EEE16__insert_node_atEPNS_15__tree_end_nodeIPNS_16__tree_node_baseIPvEEEERSK_SK_, symObjAddr: 0x4190, symBinAddr: 0x10000CC00, symSize: 0xC0 }
  - { offsetInCU: 0x10424, offset: 0x3067C, size: 0x8, addend: 0x0, symName: __ZNKSt3__110unique_ptrINS_11__tree_nodeINS_12__value_typeINS_12basic_stringIcNS_11char_traitsIcEENS_9allocatorIcEEEE8TestCaseEEPvEENS_22__tree_node_destructorINS6_ISC_EEEEE3getB8ue170006Ev, symObjAddr: 0x4250, symBinAddr: 0x10000CCC0, symSize: 0x20 }
  - { offsetInCU: 0x10449, offset: 0x306A1, size: 0x8, addend: 0x0, symName: __ZNSt3__110unique_ptrINS_11__tree_nodeINS_12__value_typeINS_12basic_stringIcNS_11char_traitsIcEENS_9allocatorIcEEEE8TestCaseEEPvEENS_22__tree_node_destructorINS6_ISC_EEEEE7releaseB8ue170006Ev, symObjAddr: 0x4270, symBinAddr: 0x10000CCE0, symSize: 0x40 }
  - { offsetInCU: 0x1047D, offset: 0x306D5, size: 0x8, addend: 0x0, symName: __ZNSt3__110unique_ptrINS_11__tree_nodeINS_12__value_typeINS_12basic_stringIcNS_11char_traitsIcEENS_9allocatorIcEEEE8TestCaseEEPvEENS_22__tree_node_destructorINS6_ISC_EEEEED1B8ue170006Ev, symObjAddr: 0x42B0, symBinAddr: 0x10000CD20, symSize: 0x20 }
  - { offsetInCU: 0x104A6, offset: 0x306FE, size: 0x8, addend: 0x0, symName: __ZNSt3__115__tree_iteratorINS_12__value_typeINS_12basic_stringIcNS_11char_traitsIcEENS_9allocatorIcEEEE8TestCaseEEPNS_11__tree_nodeIS9_PvEElEC1B8ue170006ESD_, symObjAddr: 0x42D0, symBinAddr: 0x10000CD40, symSize: 0x30 }
  - { offsetInCU: 0x104E3, offset: 0x3073B, size: 0x8, addend: 0x0, symName: __ZNSt3__14pairINS_15__tree_iteratorINS_12__value_typeINS_12basic_stringIcNS_11char_traitsIcEENS_9allocatorIcEEEE8TestCaseEEPNS_11__tree_nodeISA_PvEElEEbEC1B8ue170006ISF_RbLSC_0EEEOT_OT0_, symObjAddr: 0x4300, symBinAddr: 0x10000CD70, symSize: 0x30 }
  - { offsetInCU: 0x10540, offset: 0x30798, size: 0x8, addend: 0x0, symName: __ZNKSt3__16__treeINS_12__value_typeINS_12basic_stringIcNS_11char_traitsIcEENS_9allocatorIcEEEE8TestCaseEENS_19__map_value_compareIS7_S9_NS_4lessIS7_EELb1EEENS5_IS9_EEE10__root_ptrB8ue170006Ev, symObjAddr: 0x4330, symBinAddr: 0x10000CDA0, symSize: 0x20 }
  - { offsetInCU: 0x10565, offset: 0x307BD, size: 0x8, addend: 0x0, symName: __ZNSt3__16__treeINS_12__value_typeINS_12basic_stringIcNS_11char_traitsIcEENS_9allocatorIcEEEE8TestCaseEENS_19__map_value_compareIS7_S9_NS_4lessIS7_EELb1EEENS5_IS9_EEE10value_compB8ue170006Ev, symObjAddr: 0x4350, symBinAddr: 0x10000CDC0, symSize: 0x20 }
  - { offsetInCU: 0x1058A, offset: 0x307E2, size: 0x8, addend: 0x0, symName: __ZNKSt3__119__map_value_compareINS_12basic_stringIcNS_11char_traitsIcEENS_9allocatorIcEEEENS_12__value_typeIS6_8TestCaseEENS_4lessIS6_EELb1EEclB8ue170006ERKS6_RKS9_, symObjAddr: 0x4370, symBinAddr: 0x10000CDE0, symSize: 0x50 }
  - { offsetInCU: 0x105CD, offset: 0x30825, size: 0x8, addend: 0x0, symName: __ZNKSt3__119__map_value_compareINS_12basic_stringIcNS_11char_traitsIcEENS_9allocatorIcEEEENS_12__value_typeIS6_8TestCaseEENS_4lessIS6_EELb1EEclB8ue170006ERKS9_RKS6_, symObjAddr: 0x43C0, symBinAddr: 0x10000CE30, symSize: 0x40 }
  - { offsetInCU: 0x10610, offset: 0x30868, size: 0x8, addend: 0x0, symName: __ZNSt3__117__compressed_pairImNS_19__map_value_compareINS_12basic_stringIcNS_11char_traitsIcEENS_9allocatorIcEEEENS_12__value_typeIS7_8TestCaseEENS_4lessIS7_EELb1EEEE6secondB8ue170006Ev, symObjAddr: 0x4400, symBinAddr: 0x10000CE70, symSize: 0x20 }
  - { offsetInCU: 0x10635, offset: 0x3088D, size: 0x8, addend: 0x0, symName: __ZNSt3__122__compressed_pair_elemINS_19__map_value_compareINS_12basic_stringIcNS_11char_traitsIcEENS_9allocatorIcEEEENS_12__value_typeIS7_8TestCaseEENS_4lessIS7_EELb1EEELi1ELb1EE5__getB8ue170006Ev, symObjAddr: 0x4420, symBinAddr: 0x10000CE90, symSize: 0x10 }
  - { offsetInCU: 0x1065A, offset: 0x308B2, size: 0x8, addend: 0x0, symName: __ZNKSt3__14lessINS_12basic_stringIcNS_11char_traitsIcEENS_9allocatorIcEEEEEclB8ue170006ERKS6_S9_, symObjAddr: 0x4430, symBinAddr: 0x10000CEA0, symSize: 0x30 }
  - { offsetInCU: 0x1069D, offset: 0x308F5, size: 0x8, addend: 0x0, symName: __ZNKSt3__112__value_typeINS_12basic_stringIcNS_11char_traitsIcEENS_9allocatorIcEEEE8TestCaseE11__get_valueB8ue170006Ev, symObjAddr: 0x4460, symBinAddr: 0x10000CED0, symSize: 0x10 }
  - { offsetInCU: 0x106C2, offset: 0x3091A, size: 0x8, addend: 0x0, symName: __ZNKSt3__112basic_stringIcNS_11char_traitsIcEENS_9allocatorIcEEE7compareB8ue170006ERKS5_, symObjAddr: 0x44A0, symBinAddr: 0x10000CF10, symSize: 0x40 }
  - { offsetInCU: 0x106F7, offset: 0x3094F, size: 0x8, addend: 0x0, symName: __ZNKSt3__112basic_stringIcNS_11char_traitsIcEENS_9allocatorIcEEE7compareINS_17basic_string_viewIcS2_EELi0EEEiRKT_, symObjAddr: 0x44E0, symBinAddr: 0x10000CF50, symSize: 0xF0 }
  - { offsetInCU: 0x10778, offset: 0x309D0, size: 0x8, addend: 0x0, symName: __ZNKSt3__112basic_stringIcNS_11char_traitsIcEENS_9allocatorIcEEEcvNS_17basic_string_viewIcS2_EEB8ue170006Ev, symObjAddr: 0x45D0, symBinAddr: 0x10000D040, symSize: 0x50 }
  - { offsetInCU: 0x1079D, offset: 0x309F5, size: 0x8, addend: 0x0, symName: __ZNKSt3__117basic_string_viewIcNS_11char_traitsIcEEE4sizeB8ue170006Ev, symObjAddr: 0x4670, symBinAddr: 0x10000D090, symSize: 0x20 }
  - { offsetInCU: 0x107C2, offset: 0x30A1A, size: 0x8, addend: 0x0, symName: __ZNSt3__111char_traitsIcE7compareB8ue170006EPKcS3_m, symObjAddr: 0x4690, symBinAddr: 0x10000D0B0, symSize: 0x30 }
  - { offsetInCU: 0x10801, offset: 0x30A59, size: 0x8, addend: 0x0, symName: __ZNKSt3__117basic_string_viewIcNS_11char_traitsIcEEE4dataB8ue170006Ev, symObjAddr: 0x46F0, symBinAddr: 0x10000D0E0, symSize: 0x20 }
  - { offsetInCU: 0x10826, offset: 0x30A7E, size: 0x8, addend: 0x0, symName: __ZNSt3__117basic_string_viewIcNS_11char_traitsIcEEEC1B8ue170006EPKcm, symObjAddr: 0x4930, symBinAddr: 0x10000D100, symSize: 0x30 }
  - { offsetInCU: 0x1086D, offset: 0x30AC5, size: 0x8, addend: 0x0, symName: __ZNSt3__117basic_string_viewIcNS_11char_traitsIcEEEC2B8ue170006EPKcm, symObjAddr: 0x4960, symBinAddr: 0x10000D130, symSize: 0x30 }
  - { offsetInCU: 0x108B4, offset: 0x30B0C, size: 0x8, addend: 0x0, symName: __ZNSt3__116allocator_traitsINS_9allocatorINS_11__tree_nodeINS_12__value_typeINS_12basic_stringIcNS_11char_traitsIcEENS1_IcEEEE8TestCaseEEPvEEEEE8allocateB8ue170006ERSD_m, symObjAddr: 0x4990, symBinAddr: 0x10000D160, symSize: 0x30 }
  - { offsetInCU: 0x108E7, offset: 0x30B3F, size: 0x8, addend: 0x0, symName: __ZNSt3__122__tree_node_destructorINS_9allocatorINS_11__tree_nodeINS_12__value_typeINS_12basic_stringIcNS_11char_traitsIcEENS1_IcEEEE8TestCaseEEPvEEEEEC1B8ue170006ERSD_b, symObjAddr: 0x49C0, symBinAddr: 0x10000D190, symSize: 0x40 }
  - { offsetInCU: 0x10933, offset: 0x30B8B, size: 0x8, addend: 0x0, symName: __ZNSt3__110unique_ptrINS_11__tree_nodeINS_12__value_typeINS_12basic_stringIcNS_11char_traitsIcEENS_9allocatorIcEEEE8TestCaseEEPvEENS_22__tree_node_destructorINS6_ISC_EEEEEC1B8ue170006ILb1EvEEPSC_NS_16__dependent_typeINS_27__unique_ptr_deleter_sfinaeISF_EEXT_EE20__good_rval_ref_typeE, symObjAddr: 0x4A00, symBinAddr: 0x10000D1D0, symSize: 0x30 }
  - { offsetInCU: 0x10983, offset: 0x30BDB, size: 0x8, addend: 0x0, symName: __ZNSt3__116allocator_traitsINS_9allocatorINS_11__tree_nodeINS_12__value_typeINS_12basic_stringIcNS_11char_traitsIcEENS1_IcEEEE8TestCaseEEPvEEEEE9constructB8ue170006INS_4pairIKS8_S9_EEJSI_EvEEvRSD_PT_DpOT0_, symObjAddr: 0x4A30, symBinAddr: 0x10000D200, symSize: 0x30 }
  - { offsetInCU: 0x109DA, offset: 0x30C32, size: 0x8, addend: 0x0, symName: __ZNKSt3__110unique_ptrINS_11__tree_nodeINS_12__value_typeINS_12basic_stringIcNS_11char_traitsIcEENS_9allocatorIcEEEE8TestCaseEEPvEENS_22__tree_node_destructorINS6_ISC_EEEEEptB8ue170006Ev, symObjAddr: 0x4A60, symBinAddr: 0x10000D230, symSize: 0x20 }
  - { offsetInCU: 0x109FF, offset: 0x30C57, size: 0x8, addend: 0x0, symName: __ZNSt3__110unique_ptrINS_11__tree_nodeINS_12__value_typeINS_12basic_stringIcNS_11char_traitsIcEENS_9allocatorIcEEEE8TestCaseEEPvEENS_22__tree_node_destructorINS6_ISC_EEEEE11get_deleterB8ue170006Ev, symObjAddr: 0x4A80, symBinAddr: 0x10000D250, symSize: 0x20 }
  - { offsetInCU: 0x10A24, offset: 0x30C7C, size: 0x8, addend: 0x0, symName: __ZNSt3__19allocatorINS_11__tree_nodeINS_12__value_typeINS_12basic_stringIcNS_11char_traitsIcEENS0_IcEEEE8TestCaseEEPvEEE8allocateB8ue170006Em, symObjAddr: 0x4AA0, symBinAddr: 0x10000D270, symSize: 0x50 }
  - { offsetInCU: 0x10A61, offset: 0x30CB9, size: 0x8, addend: 0x0, symName: __ZNSt3__116allocator_traitsINS_9allocatorINS_11__tree_nodeINS_12__value_typeINS_12basic_stringIcNS_11char_traitsIcEENS1_IcEEEE8TestCaseEEPvEEEEE8max_sizeB8ue170006ISD_vEEmRKSD_, symObjAddr: 0x4AF0, symBinAddr: 0x10000D2C0, symSize: 0x20 }
  - { offsetInCU: 0x10A8F, offset: 0x30CE7, size: 0x8, addend: 0x0, symName: __ZNKSt3__19allocatorINS_11__tree_nodeINS_12__value_typeINS_12basic_stringIcNS_11char_traitsIcEENS0_IcEEEE8TestCaseEEPvEEE8max_sizeB8ue170006Ev, symObjAddr: 0x4B70, symBinAddr: 0x10000D2E0, symSize: 0x20 }
  - { offsetInCU: 0x10AB4, offset: 0x30D0C, size: 0x8, addend: 0x0, symName: __ZNSt3__122__tree_node_destructorINS_9allocatorINS_11__tree_nodeINS_12__value_typeINS_12basic_stringIcNS_11char_traitsIcEENS1_IcEEEE8TestCaseEEPvEEEEEC2B8ue170006ERSD_b, symObjAddr: 0x4BB0, symBinAddr: 0x10000D300, symSize: 0x30 }
  - { offsetInCU: 0x10AFB, offset: 0x30D53, size: 0x8, addend: 0x0, symName: __ZNSt3__110unique_ptrINS_11__tree_nodeINS_12__value_typeINS_12basic_stringIcNS_11char_traitsIcEENS_9allocatorIcEEEE8TestCaseEEPvEENS_22__tree_node_destructorINS6_ISC_EEEEEC2B8ue170006ILb1EvEEPSC_NS_16__dependent_typeINS_27__unique_ptr_deleter_sfinaeISF_EEXT_EE20__good_rval_ref_typeE, symObjAddr: 0x4BE0, symBinAddr: 0x10000D330, symSize: 0x40 }
  - { offsetInCU: 0x10B4B, offset: 0x30DA3, size: 0x8, addend: 0x0, symName: __ZNSt3__117__compressed_pairIPNS_11__tree_nodeINS_12__value_typeINS_12basic_stringIcNS_11char_traitsIcEENS_9allocatorIcEEEE8TestCaseEEPvEENS_22__tree_node_destructorINS6_ISC_EEEEEC1B8ue170006IRSD_SG_EEOT_OT0_, symObjAddr: 0x4C20, symBinAddr: 0x10000D370, symSize: 0x30 }
  - { offsetInCU: 0x10BA2, offset: 0x30DFA, size: 0x8, addend: 0x0, symName: __ZNSt3__117__compressed_pairIPNS_11__tree_nodeINS_12__value_typeINS_12basic_stringIcNS_11char_traitsIcEENS_9allocatorIcEEEE8TestCaseEEPvEENS_22__tree_node_destructorINS6_ISC_EEEEEC2B8ue170006IRSD_SG_EEOT_OT0_, symObjAddr: 0x4C50, symBinAddr: 0x10000D3A0, symSize: 0x40 }
  - { offsetInCU: 0x10BF9, offset: 0x30E51, size: 0x8, addend: 0x0, symName: __ZNSt3__122__compressed_pair_elemIPNS_11__tree_nodeINS_12__value_typeINS_12basic_stringIcNS_11char_traitsIcEENS_9allocatorIcEEEE8TestCaseEEPvEELi0ELb0EEC2B8ue170006IRSD_vEEOT_, symObjAddr: 0x4C90, symBinAddr: 0x10000D3E0, symSize: 0x20 }
  - { offsetInCU: 0x10C3A, offset: 0x30E92, size: 0x8, addend: 0x0, symName: __ZNSt3__122__compressed_pair_elemINS_22__tree_node_destructorINS_9allocatorINS_11__tree_nodeINS_12__value_typeINS_12basic_stringIcNS_11char_traitsIcEENS2_IcEEEE8TestCaseEEPvEEEEEELi1ELb0EEC2B8ue170006ISF_vEEOT_, symObjAddr: 0x4CB0, symBinAddr: 0x10000D400, symSize: 0x30 }
  - { offsetInCU: 0x10C7B, offset: 0x30ED3, size: 0x8, addend: 0x0, symName: __ZNSt3__19allocatorINS_11__tree_nodeINS_12__value_typeINS_12basic_stringIcNS_11char_traitsIcEENS0_IcEEEE8TestCaseEEPvEEE9constructB8ue170006INS_4pairIKS7_S8_EEJSG_EEEvPT_DpOT0_, symObjAddr: 0x4CE0, symBinAddr: 0x10000D430, symSize: 0x30 }
  - { offsetInCU: 0x10CD0, offset: 0x30F28, size: 0x8, addend: 0x0, symName: __ZNSt3__14pairIKNS_12basic_stringIcNS_11char_traitsIcEENS_9allocatorIcEEEE8TestCaseEC1B8ue170006EOS9_, symObjAddr: 0x4D10, symBinAddr: 0x10000D460, symSize: 0x30 }
  - { offsetInCU: 0x10D03, offset: 0x30F5B, size: 0x8, addend: 0x0, symName: __ZNSt3__14pairIKNS_12basic_stringIcNS_11char_traitsIcEENS_9allocatorIcEEEE8TestCaseEC2B8ue170006EOS9_, symObjAddr: 0x4D40, symBinAddr: 0x10000D490, symSize: 0x40 }
  - { offsetInCU: 0x10D36, offset: 0x30F8E, size: 0x8, addend: 0x0, symName: __ZN8TestCaseC1EOS_, symObjAddr: 0x4D80, symBinAddr: 0x10000D4D0, symSize: 0x30 }
  - { offsetInCU: 0x10D6A, offset: 0x30FC2, size: 0x8, addend: 0x0, symName: __ZN8TestCaseC2EOS_, symObjAddr: 0x4DB0, symBinAddr: 0x10000D500, symSize: 0x60 }
  - { offsetInCU: 0x10D9E, offset: 0x30FF6, size: 0x8, addend: 0x0, symName: __ZNKSt3__117__compressed_pairIPNS_11__tree_nodeINS_12__value_typeINS_12basic_stringIcNS_11char_traitsIcEENS_9allocatorIcEEEE8TestCaseEEPvEENS_22__tree_node_destructorINS6_ISC_EEEEE5firstB8ue170006Ev, symObjAddr: 0x4E10, symBinAddr: 0x10000D560, symSize: 0x20 }
  - { offsetInCU: 0x10DC3, offset: 0x3101B, size: 0x8, addend: 0x0, symName: __ZNKSt3__122__compressed_pair_elemIPNS_11__tree_nodeINS_12__value_typeINS_12basic_stringIcNS_11char_traitsIcEENS_9allocatorIcEEEE8TestCaseEEPvEELi0ELb0EE5__getB8ue170006Ev, symObjAddr: 0x4E30, symBinAddr: 0x10000D580, symSize: 0x10 }
  - { offsetInCU: 0x10DE8, offset: 0x31040, size: 0x8, addend: 0x0, symName: __ZNSt3__117__compressed_pairIPNS_11__tree_nodeINS_12__value_typeINS_12basic_stringIcNS_11char_traitsIcEENS_9allocatorIcEEEE8TestCaseEEPvEENS_22__tree_node_destructorINS6_ISC_EEEEE6secondB8ue170006Ev, symObjAddr: 0x4E40, symBinAddr: 0x10000D590, symSize: 0x20 }
  - { offsetInCU: 0x10E0D, offset: 0x31065, size: 0x8, addend: 0x0, symName: __ZNSt3__122__compressed_pair_elemINS_22__tree_node_destructorINS_9allocatorINS_11__tree_nodeINS_12__value_typeINS_12basic_stringIcNS_11char_traitsIcEENS2_IcEEEE8TestCaseEEPvEEEEEELi1ELb0EE5__getB8ue170006Ev, symObjAddr: 0x4E60, symBinAddr: 0x10000D5B0, symSize: 0x10 }
  - { offsetInCU: 0x10E32, offset: 0x3108A, size: 0x8, addend: 0x0, symName: __ZNSt3__16__treeINS_12__value_typeINS_12basic_stringIcNS_11char_traitsIcEENS_9allocatorIcEEEE8TestCaseEENS_19__map_value_compareIS7_S9_NS_4lessIS7_EELb1EEENS5_IS9_EEE4sizeB8ue170006Ev, symObjAddr: 0x50B0, symBinAddr: 0x10000D800, symSize: 0x20 }
  - { offsetInCU: 0x10E57, offset: 0x310AF, size: 0x8, addend: 0x0, symName: __ZNSt3__116__tree_node_baseIPvE12__set_parentB8ue170006EPS2_, symObjAddr: 0x5260, symBinAddr: 0x10000D9B0, symSize: 0x20 }
  - { offsetInCU: 0x10E8B, offset: 0x310E3, size: 0x8, addend: 0x0, symName: __ZNSt3__117__compressed_pairImNS_19__map_value_compareINS_12basic_stringIcNS_11char_traitsIcEENS_9allocatorIcEEEENS_12__value_typeIS7_8TestCaseEENS_4lessIS7_EELb1EEEE5firstB8ue170006Ev, symObjAddr: 0x5280, symBinAddr: 0x10000D9D0, symSize: 0x20 }
  - { offsetInCU: 0x10EB0, offset: 0x31108, size: 0x8, addend: 0x0, symName: __ZNSt3__117__compressed_pairIPNS_11__tree_nodeINS_12__value_typeINS_12basic_stringIcNS_11char_traitsIcEENS_9allocatorIcEEEE8TestCaseEEPvEENS_22__tree_node_destructorINS6_ISC_EEEEE5firstB8ue170006Ev, symObjAddr: 0x52B0, symBinAddr: 0x10000D9F0, symSize: 0x20 }
  - { offsetInCU: 0x10ED5, offset: 0x3112D, size: 0x8, addend: 0x0, symName: __ZNSt3__122__compressed_pair_elemIPNS_11__tree_nodeINS_12__value_typeINS_12basic_stringIcNS_11char_traitsIcEENS_9allocatorIcEEEE8TestCaseEEPvEELi0ELb0EE5__getB8ue170006Ev, symObjAddr: 0x52D0, symBinAddr: 0x10000DA10, symSize: 0x10 }
  - { offsetInCU: 0x10EFA, offset: 0x31152, size: 0x8, addend: 0x0, symName: __ZNSt3__110unique_ptrINS_11__tree_nodeINS_12__value_typeINS_12basic_stringIcNS_11char_traitsIcEENS_9allocatorIcEEEE8TestCaseEEPvEENS_22__tree_node_destructorINS6_ISC_EEEEED2B8ue170006Ev, symObjAddr: 0x52E0, symBinAddr: 0x10000DA20, symSize: 0x20 }
  - { offsetInCU: 0x10F23, offset: 0x3117B, size: 0x8, addend: 0x0, symName: __ZNSt3__110unique_ptrINS_11__tree_nodeINS_12__value_typeINS_12basic_stringIcNS_11char_traitsIcEENS_9allocatorIcEEEE8TestCaseEEPvEENS_22__tree_node_destructorINS6_ISC_EEEEE5resetB8ue170006EPSC_, symObjAddr: 0x5300, symBinAddr: 0x10000DA40, symSize: 0x70 }
  - { offsetInCU: 0x10F66, offset: 0x311BE, size: 0x8, addend: 0x0, symName: __ZNSt3__122__tree_node_destructorINS_9allocatorINS_11__tree_nodeINS_12__value_typeINS_12basic_stringIcNS_11char_traitsIcEENS1_IcEEEE8TestCaseEEPvEEEEEclB8ue170006EPSC_, symObjAddr: 0x5370, symBinAddr: 0x10000DAB0, symSize: 0x80 }
  - { offsetInCU: 0x10F9A, offset: 0x311F2, size: 0x8, addend: 0x0, symName: __ZNSt3__115__tree_iteratorINS_12__value_typeINS_12basic_stringIcNS_11char_traitsIcEENS_9allocatorIcEEEE8TestCaseEEPNS_11__tree_nodeIS9_PvEElEC2B8ue170006ESD_, symObjAddr: 0x53F0, symBinAddr: 0x10000DB30, symSize: 0x20 }
  - { offsetInCU: 0x10FD2, offset: 0x3122A, size: 0x8, addend: 0x0, symName: __ZNSt3__14pairINS_15__tree_iteratorINS_12__value_typeINS_12basic_stringIcNS_11char_traitsIcEENS_9allocatorIcEEEE8TestCaseEEPNS_11__tree_nodeISA_PvEElEEbEC2B8ue170006ISF_RbLSC_0EEEOT_OT0_, symObjAddr: 0x5410, symBinAddr: 0x10000DB50, symSize: 0x30 }
  - { offsetInCU: 0x1102F, offset: 0x31287, size: 0x8, addend: 0x0, symName: __ZNSt3__14pairINS_14__map_iteratorINS_15__tree_iteratorINS_12__value_typeINS_12basic_stringIcNS_11char_traitsIcEENS_9allocatorIcEEEE8TestCaseEEPNS_11__tree_nodeISB_PvEElEEEEbEC2B8ue170006ISG_bLSD_0EEEONS0_IT_T0_EE, symObjAddr: 0x5440, symBinAddr: 0x10000DB80, symSize: 0x50 }
  - { offsetInCU: 0x1107F, offset: 0x312D7, size: 0x8, addend: 0x0, symName: __ZNSt3__114__map_iteratorINS_15__tree_iteratorINS_12__value_typeINS_12basic_stringIcNS_11char_traitsIcEENS_9allocatorIcEEEE8TestCaseEEPNS_11__tree_nodeISA_PvEElEEEC1B8ue170006ESF_, symObjAddr: 0x5490, symBinAddr: 0x10000DBD0, symSize: 0x30 }
  - { offsetInCU: 0x110B7, offset: 0x3130F, size: 0x8, addend: 0x0, symName: __ZNSt3__114__map_iteratorINS_15__tree_iteratorINS_12__value_typeINS_12basic_stringIcNS_11char_traitsIcEENS_9allocatorIcEEEE8TestCaseEEPNS_11__tree_nodeISA_PvEElEEEC2B8ue170006ESF_, symObjAddr: 0x54C0, symBinAddr: 0x10000DC00, symSize: 0x20 }
  - { offsetInCU: 0x110EF, offset: 0x31347, size: 0x8, addend: 0x0, symName: __ZN8TestCaseC2ERKNSt3__112basic_stringIcNS0_11char_traitsIcEENS0_9allocatorIcEEEEPFvvE, symObjAddr: 0x54E0, symBinAddr: 0x10000DC20, symSize: 0x50 }
  - { offsetInCU: 0x11134, offset: 0x3138C, size: 0x8, addend: 0x0, symName: __ZNSt3__112basic_stringIcNS_11char_traitsIcEENS_9allocatorIcEEEC1B8ue170006Ev, symObjAddr: 0x5530, symBinAddr: 0x10000DC70, symSize: 0x20 }
  - { offsetInCU: 0x1115D, offset: 0x313B5, size: 0x8, addend: 0x0, symName: __ZNSt3__112basic_stringIcNS_11char_traitsIcEENS_9allocatorIcEEEC2B8ue170006Ev, symObjAddr: 0x5550, symBinAddr: 0x10000DC90, symSize: 0x40 }
  - { offsetInCU: 0x1118B, offset: 0x313E3, size: 0x8, addend: 0x0, symName: __ZNSt3__14pairIKNS_12basic_stringIcNS_11char_traitsIcEENS_9allocatorIcEEEE8TestCaseEC2B8ue170006IRS7_S8_LPv0EEEOT_OT0_, symObjAddr: 0x5650, symBinAddr: 0x10000DCD0, symSize: 0x40 }
  - { offsetInCU: 0x11233, offset: 0x3148B, size: 0x8, addend: 0x0, symName: __ZN5BoardC1Ev, symObjAddr: 0x5690, symBinAddr: 0x10000DD10, symSize: 0x20 }
  - { offsetInCU: 0x1125E, offset: 0x314B6, size: 0x8, addend: 0x0, symName: __ZN5BoardD1Ev, symObjAddr: 0x56B0, symBinAddr: 0x10000DD30, symSize: 0x20 }
  - { offsetInCU: 0x11289, offset: 0x314E1, size: 0x8, addend: 0x0, symName: __ZN5BoardC2Ev, symObjAddr: 0x56D0, symBinAddr: 0x10000DD50, symSize: 0x30 }
  - { offsetInCU: 0x112B4, offset: 0x3150C, size: 0x8, addend: 0x0, symName: __ZNSt3__16vectorINS0_ImNS_9allocatorImEEEENS1_IS3_EEEC1B8ue170006Ev, symObjAddr: 0x5700, symBinAddr: 0x10000DD80, symSize: 0x20 }
  - { offsetInCU: 0x112DD, offset: 0x31535, size: 0x8, addend: 0x0, symName: __ZNSt3__16vectorIbNS_9allocatorIbEEEC1B8ue170006Ev, symObjAddr: 0x5720, symBinAddr: 0x10000DDA0, symSize: 0x20 }
  - { offsetInCU: 0x11308, offset: 0x31560, size: 0x8, addend: 0x0, symName: __ZNSt3__16vectorINS0_ImNS_9allocatorImEEEENS1_IS3_EEEC2B8ue170006Ev, symObjAddr: 0x5740, symBinAddr: 0x10000DDC0, symSize: 0x50 }
  - { offsetInCU: 0x11336, offset: 0x3158E, size: 0x8, addend: 0x0, symName: __ZNSt3__117__compressed_pairIPNS_6vectorImNS_9allocatorImEEEENS2_IS4_EEEC1B8ue170006IDnNS_18__default_init_tagEEEOT_OT0_, symObjAddr: 0x5790, symBinAddr: 0x10000DE10, symSize: 0x30 }
  - { offsetInCU: 0x1138D, offset: 0x315E5, size: 0x8, addend: 0x0, symName: __ZNSt3__117__compressed_pairIPNS_6vectorImNS_9allocatorImEEEENS2_IS4_EEEC2B8ue170006IDnNS_18__default_init_tagEEEOT_OT0_, symObjAddr: 0x57C0, symBinAddr: 0x10000DE40, symSize: 0x40 }
  - { offsetInCU: 0x113E4, offset: 0x3163C, size: 0x8, addend: 0x0, symName: __ZNSt3__122__compressed_pair_elemINS_9allocatorINS_6vectorImNS1_ImEEEEEELi1ELb1EEC2B8ue170006ENS_18__default_init_tagE, symObjAddr: 0x5820, symBinAddr: 0x10000DE80, symSize: 0x20 }
  - { offsetInCU: 0x11417, offset: 0x3166F, size: 0x8, addend: 0x0, symName: __ZNSt3__19allocatorINS_6vectorImNS0_ImEEEEEC2B8ue170006Ev, symObjAddr: 0x5840, symBinAddr: 0x10000DEA0, symSize: 0x20 }
  - { offsetInCU: 0x11440, offset: 0x31698, size: 0x8, addend: 0x0, symName: __ZNSt3__116__non_trivial_ifILb1ENS_9allocatorINS_6vectorImNS1_ImEEEEEEEC2B8ue170006Ev, symObjAddr: 0x5860, symBinAddr: 0x10000DEC0, symSize: 0x10 }
  - { offsetInCU: 0x11469, offset: 0x316C1, size: 0x8, addend: 0x0, symName: __ZNSt3__16vectorIbNS_9allocatorIbEEEC2B8ue170006Ev, symObjAddr: 0x5870, symBinAddr: 0x10000DED0, symSize: 0x50 }
  - { offsetInCU: 0x11494, offset: 0x316EC, size: 0x8, addend: 0x0, symName: __ZNSt3__117__compressed_pairImNS_9allocatorImEEEC1B8ue170006IiNS_18__default_init_tagEEEOT_OT0_, symObjAddr: 0x58C0, symBinAddr: 0x10000DF20, symSize: 0x30 }
  - { offsetInCU: 0x114EB, offset: 0x31743, size: 0x8, addend: 0x0, symName: __ZNSt3__117__compressed_pairImNS_9allocatorImEEEC2B8ue170006IiNS_18__default_init_tagEEEOT_OT0_, symObjAddr: 0x58F0, symBinAddr: 0x10000DF50, symSize: 0x40 }
  - { offsetInCU: 0x11542, offset: 0x3179A, size: 0x8, addend: 0x0, symName: __ZN5BoardD2Ev, symObjAddr: 0x5980, symBinAddr: 0x10000DF90, symSize: 0x30 }
  - { offsetInCU: 0x1156D, offset: 0x317C5, size: 0x8, addend: 0x0, symName: __ZNSt3__16vectorINS0_ImNS_9allocatorImEEEENS1_IS3_EEED1B8ue170006Ev, symObjAddr: 0x59D0, symBinAddr: 0x10000DFC0, symSize: 0x20 }
  - { offsetInCU: 0x11596, offset: 0x317EE, size: 0x8, addend: 0x0, symName: __ZNSt3__16vectorINS0_ImNS_9allocatorImEEEENS1_IS3_EEED2B8ue170006Ev, symObjAddr: 0x5BE0, symBinAddr: 0x10000DFE0, symSize: 0x40 }
  - { offsetInCU: 0x115BF, offset: 0x31817, size: 0x8, addend: 0x0, symName: __ZNSt3__16vectorINS0_ImNS_9allocatorImEEEENS1_IS3_EEE16__destroy_vectorC1B8ue170006ERS5_, symObjAddr: 0x5C20, symBinAddr: 0x10000E020, symSize: 0x30 }
  - { offsetInCU: 0x115F7, offset: 0x3184F, size: 0x8, addend: 0x0, symName: __ZNSt3__16vectorINS0_ImNS_9allocatorImEEEENS1_IS3_EEE16__destroy_vectorclB8ue170006Ev, symObjAddr: 0x5C50, symBinAddr: 0x10000E050, symSize: 0x80 }
  - { offsetInCU: 0x1161C, offset: 0x31874, size: 0x8, addend: 0x0, symName: __ZNSt3__16vectorINS0_ImNS_9allocatorImEEEENS1_IS3_EEE16__destroy_vectorC2B8ue170006ERS5_, symObjAddr: 0x5CD0, symBinAddr: 0x10000E0D0, symSize: 0x20 }
  - { offsetInCU: 0x11654, offset: 0x318AC, size: 0x8, addend: 0x0, symName: __ZNSt3__16vectorINS0_ImNS_9allocatorImEEEENS1_IS3_EEE7__clearB8ue170006Ev, symObjAddr: 0x5CF0, symBinAddr: 0x10000E0F0, symSize: 0x20 }
  - { offsetInCU: 0x11679, offset: 0x318D1, size: 0x8, addend: 0x0, symName: __ZN18TestSuiteDestroyerD2Ev, symObjAddr: 0x6460, symBinAddr: 0x10000E110, symSize: 0x40 }
  - { offsetInCU: 0x116A2, offset: 0x318FA, size: 0x8, addend: 0x0, symName: __ZN9TestSuiteD1Ev, symObjAddr: 0x64A0, symBinAddr: 0x10000E150, symSize: 0x20 }
  - { offsetInCU: 0x116CB, offset: 0x31923, size: 0x8, addend: 0x0, symName: __ZN9TestSuiteD2Ev, symObjAddr: 0x64C0, symBinAddr: 0x10000E170, symSize: 0x20 }
  - { offsetInCU: 0x116F4, offset: 0x3194C, size: 0x8, addend: 0x0, symName: __ZNSt3__16__treeINS_12__value_typeINS_12basic_stringIcNS_11char_traitsIcEENS_9allocatorIcEEEE8TestCaseEENS_19__map_value_compareIS7_S9_NS_4lessIS7_EELb1EEENS5_IS9_EEE5beginB8ue170006Ev, symObjAddr: 0x64E0, symBinAddr: 0x10000E190, symSize: 0x30 }
  - { offsetInCU: 0x11719, offset: 0x31971, size: 0x8, addend: 0x0, symName: __ZNSt3__115__tree_iteratorINS_12__value_typeINS_12basic_stringIcNS_11char_traitsIcEENS_9allocatorIcEEEE8TestCaseEEPNS_11__tree_nodeIS9_PvEElEC1B8ue170006EPNS_15__tree_end_nodeIPNS_16__tree_node_baseISB_EEEE, symObjAddr: 0x6510, symBinAddr: 0x10000E1C0, symSize: 0x30 }
  - { offsetInCU: 0x11751, offset: 0x319A9, size: 0x8, addend: 0x0, symName: __ZNSt3__115__tree_iteratorINS_12__value_typeINS_12basic_stringIcNS_11char_traitsIcEENS_9allocatorIcEEEE8TestCaseEEPNS_11__tree_nodeIS9_PvEElEC2B8ue170006EPNS_15__tree_end_nodeIPNS_16__tree_node_baseISB_EEEE, symObjAddr: 0x6540, symBinAddr: 0x10000E1F0, symSize: 0x20 }
  - { offsetInCU: 0x11789, offset: 0x319E1, size: 0x8, addend: 0x0, symName: __ZNSt3__16__treeINS_12__value_typeINS_12basic_stringIcNS_11char_traitsIcEENS_9allocatorIcEEEE8TestCaseEENS_19__map_value_compareIS7_S9_NS_4lessIS7_EELb1EEENS5_IS9_EEE3endB8ue170006Ev, symObjAddr: 0x6560, symBinAddr: 0x10000E210, symSize: 0x30 }
  - { offsetInCU: 0x117C7, offset: 0x31A1F, size: 0x8, addend: 0x0, symName: __ZNSt3__19basic_iosIcNS_11char_traitsIcEEEC2B8ue170006Ev, symObjAddr: 0x6DF0, symBinAddr: 0x10000E240, symSize: 0x40 }
  - { offsetInCU: 0x117F0, offset: 0x31A48, size: 0x8, addend: 0x0, symName: __ZNSt3__113basic_ostreamIcNS_11char_traitsIcEEEC2B8ue170006EPNS_15basic_streambufIcS2_EE, symObjAddr: 0x6E30, symBinAddr: 0x10000E280, symSize: 0x50 }
  - { offsetInCU: 0x11833, offset: 0x31A8B, size: 0x8, addend: 0x0, symName: __ZNSt3__115basic_stringbufIcNS_11char_traitsIcEENS_9allocatorIcEEEC1B8ue170006Ej, symObjAddr: 0x6E80, symBinAddr: 0x10000E2D0, symSize: 0x30 }
  - { offsetInCU: 0x1186B, offset: 0x31AC3, size: 0x8, addend: 0x0, symName: __ZNSt3__18ios_baseC2B8ue170006Ev, symObjAddr: 0x6EB0, symBinAddr: 0x10000E300, symSize: 0x20 }
  - { offsetInCU: 0x11894, offset: 0x31AEC, size: 0x8, addend: 0x0, symName: __ZNSt3__19basic_iosIcNS_11char_traitsIcEEE4initB8ue170006EPNS_15basic_streambufIcS2_EE, symObjAddr: 0x6ED0, symBinAddr: 0x10000E320, symSize: 0x50 }
  - { offsetInCU: 0x118C9, offset: 0x31B21, size: 0x8, addend: 0x0, symName: __ZNSt3__115basic_stringbufIcNS_11char_traitsIcEENS_9allocatorIcEEEC2B8ue170006Ej, symObjAddr: 0x6F20, symBinAddr: 0x10000E370, symSize: 0x50 }
  - { offsetInCU: 0x11901, offset: 0x31B59, size: 0x8, addend: 0x0, symName: __ZNSt3__112basic_stringIcNS_11char_traitsIcEENS_9allocatorIcEEE13__move_assignB8ue170006ERS5_NS_17integral_constantIbLb1EEE, symObjAddr: 0x6F70, symBinAddr: 0x10000E3C0, symSize: 0xD0 }
  - { offsetInCU: 0x11941, offset: 0x31B99, size: 0x8, addend: 0x0, symName: __ZNSt3__116allocator_traitsINS_9allocatorIcEEE10deallocateB8ue170006ERS2_Pcm, symObjAddr: 0x7040, symBinAddr: 0x10000E490, symSize: 0x30 }
  - { offsetInCU: 0x11983, offset: 0x31BDB, size: 0x8, addend: 0x0, symName: __ZNSt3__112basic_stringIcNS_11char_traitsIcEENS_9allocatorIcEEE7__allocB8ue170006Ev, symObjAddr: 0x7070, symBinAddr: 0x10000E4C0, symSize: 0x20 }
  - { offsetInCU: 0x119A8, offset: 0x31C00, size: 0x8, addend: 0x0, symName: __ZNSt3__112basic_stringIcNS_11char_traitsIcEENS_9allocatorIcEEE18__get_long_pointerB8ue170006Ev, symObjAddr: 0x7090, symBinAddr: 0x10000E4E0, symSize: 0x20 }
  - { offsetInCU: 0x119CD, offset: 0x31C25, size: 0x8, addend: 0x0, symName: __ZNKSt3__112basic_stringIcNS_11char_traitsIcEENS_9allocatorIcEEE14__get_long_capB8ue170006Ev, symObjAddr: 0x70B0, symBinAddr: 0x10000E500, symSize: 0x30 }
  - { offsetInCU: 0x119F2, offset: 0x31C4A, size: 0x8, addend: 0x0, symName: __ZNSt3__112basic_stringIcNS_11char_traitsIcEENS_9allocatorIcEEE19__move_assign_allocB8ue170006ERS5_, symObjAddr: 0x70E0, symBinAddr: 0x10000E530, symSize: 0x30 }
  - { offsetInCU: 0x11A26, offset: 0x31C7E, size: 0x8, addend: 0x0, symName: __ZNSt3__112basic_stringIcNS_11char_traitsIcEENS_9allocatorIcEEE16__set_short_sizeB8ue170006Em, symObjAddr: 0x7110, symBinAddr: 0x10000E560, symSize: 0x50 }
  - { offsetInCU: 0x11A5A, offset: 0x31CB2, size: 0x8, addend: 0x0, symName: __ZNSt3__111char_traitsIcE6assignB8ue170006ERcRKc, symObjAddr: 0x7160, symBinAddr: 0x10000E5B0, symSize: 0x20 }
  - { offsetInCU: 0x11A8B, offset: 0x31CE3, size: 0x8, addend: 0x0, symName: __ZNSt3__112basic_stringIcNS_11char_traitsIcEENS_9allocatorIcEEE19__get_short_pointerB8ue170006Ev, symObjAddr: 0x7180, symBinAddr: 0x10000E5D0, symSize: 0x30 }
  - { offsetInCU: 0x11AB0, offset: 0x31D08, size: 0x8, addend: 0x0, symName: __ZNSt3__19allocatorIcE10deallocateB8ue170006EPcm, symObjAddr: 0x71B0, symBinAddr: 0x10000E600, symSize: 0x40 }
  - { offsetInCU: 0x11AF1, offset: 0x31D49, size: 0x8, addend: 0x0, symName: __ZNSt3__117__compressed_pairINS_12basic_stringIcNS_11char_traitsIcEENS_9allocatorIcEEE5__repES5_E6secondB8ue170006Ev, symObjAddr: 0x71F0, symBinAddr: 0x10000E640, symSize: 0x20 }
  - { offsetInCU: 0x11B16, offset: 0x31D6E, size: 0x8, addend: 0x0, symName: __ZNSt3__122__compressed_pair_elemINS_9allocatorIcEELi1ELb1EE5__getB8ue170006Ev, symObjAddr: 0x7210, symBinAddr: 0x10000E660, symSize: 0x10 }
  - { offsetInCU: 0x11B3B, offset: 0x31D93, size: 0x8, addend: 0x0, symName: __ZNSt3__112basic_stringIcNS_11char_traitsIcEENS_9allocatorIcEEE19__move_assign_allocB8ue170006ERS5_NS_17integral_constantIbLb1EEE, symObjAddr: 0x7220, symBinAddr: 0x10000E670, symSize: 0x30 }
  - { offsetInCU: 0x11B7A, offset: 0x31DD2, size: 0x8, addend: 0x0, symName: __ZNSt3__114pointer_traitsIPcE10pointer_toB8ue170006ERc, symObjAddr: 0x7250, symBinAddr: 0x10000E6A0, symSize: 0x10 }
  - { offsetInCU: 0x11B9D, offset: 0x31DF5, size: 0x8, addend: 0x0, symName: __ZNSt3__16vectorINS_12basic_stringIcNS_11char_traitsIcEENS_9allocatorIcEEEENS4_IS6_EEEC2B8ue170006Ev, symObjAddr: 0x7260, symBinAddr: 0x10000E6B0, symSize: 0x50 }
  - { offsetInCU: 0x11BC6, offset: 0x31E1E, size: 0x8, addend: 0x0, symName: __ZNSt3__117__compressed_pairIPNS_12basic_stringIcNS_11char_traitsIcEENS_9allocatorIcEEEENS4_IS6_EEEC1B8ue170006IDnNS_18__default_init_tagEEEOT_OT0_, symObjAddr: 0x72B0, symBinAddr: 0x10000E700, symSize: 0x30 }
  - { offsetInCU: 0x11C1D, offset: 0x31E75, size: 0x8, addend: 0x0, symName: __ZNSt3__117__compressed_pairIPNS_12basic_stringIcNS_11char_traitsIcEENS_9allocatorIcEEEENS4_IS6_EEEC2B8ue170006IDnNS_18__default_init_tagEEEOT_OT0_, symObjAddr: 0x72E0, symBinAddr: 0x10000E730, symSize: 0x40 }
  - { offsetInCU: 0x11C74, offset: 0x31ECC, size: 0x8, addend: 0x0, symName: __ZNSt3__122__compressed_pair_elemIPNS_12basic_stringIcNS_11char_traitsIcEENS_9allocatorIcEEEELi0ELb0EEC2B8ue170006IDnvEEOT_, symObjAddr: 0x7320, symBinAddr: 0x10000E770, symSize: 0x20 }
  - { offsetInCU: 0x11CB5, offset: 0x31F0D, size: 0x8, addend: 0x0, symName: __ZNSt3__122__compressed_pair_elemINS_9allocatorINS_12basic_stringIcNS_11char_traitsIcEENS1_IcEEEEEELi1ELb1EEC2B8ue170006ENS_18__default_init_tagE, symObjAddr: 0x7340, symBinAddr: 0x10000E790, symSize: 0x20 }
  - { offsetInCU: 0x11CE8, offset: 0x31F40, size: 0x8, addend: 0x0, symName: __ZNSt3__19allocatorINS_12basic_stringIcNS_11char_traitsIcEENS0_IcEEEEEC2B8ue170006Ev, symObjAddr: 0x7360, symBinAddr: 0x10000E7B0, symSize: 0x20 }
  - { offsetInCU: 0x11D11, offset: 0x31F69, size: 0x8, addend: 0x0, symName: __ZNSt3__116__non_trivial_ifILb1ENS_9allocatorINS_12basic_stringIcNS_11char_traitsIcEENS1_IcEEEEEEEC2B8ue170006Ev, symObjAddr: 0x7380, symBinAddr: 0x10000E7D0, symSize: 0x10 }
  - { offsetInCU: 0x11D3A, offset: 0x31F92, size: 0x8, addend: 0x0, symName: __ZNSt3__16vectorINS_12basic_stringIcNS_11char_traitsIcEENS_9allocatorIcEEEENS4_IS6_EEED2B8ue170006Ev, symObjAddr: 0x7390, symBinAddr: 0x10000E7E0, symSize: 0x40 }
  - { offsetInCU: 0x11D63, offset: 0x31FBB, size: 0x8, addend: 0x0, symName: __ZNSt3__16vectorINS_12basic_stringIcNS_11char_traitsIcEENS_9allocatorIcEEEENS4_IS6_EEE16__destroy_vectorC1B8ue170006ERS8_, symObjAddr: 0x73D0, symBinAddr: 0x10000E820, symSize: 0x30 }
  - { offsetInCU: 0x11D9B, offset: 0x31FF3, size: 0x8, addend: 0x0, symName: __ZNSt3__16vectorINS_12basic_stringIcNS_11char_traitsIcEENS_9allocatorIcEEEENS4_IS6_EEE16__destroy_vectorclB8ue170006Ev, symObjAddr: 0x7400, symBinAddr: 0x10000E850, symSize: 0x80 }
  - { offsetInCU: 0x11DC0, offset: 0x32018, size: 0x8, addend: 0x0, symName: __ZNSt3__16vectorINS_12basic_stringIcNS_11char_traitsIcEENS_9allocatorIcEEEENS4_IS6_EEE16__destroy_vectorC2B8ue170006ERS8_, symObjAddr: 0x7480, symBinAddr: 0x10000E8D0, symSize: 0x20 }
  - { offsetInCU: 0x11DF8, offset: 0x32050, size: 0x8, addend: 0x0, symName: __ZNSt3__16vectorINS_12basic_stringIcNS_11char_traitsIcEENS_9allocatorIcEEEENS4_IS6_EEE7__clearB8ue170006Ev, symObjAddr: 0x74A0, symBinAddr: 0x10000E8F0, symSize: 0x20 }
  - { offsetInCU: 0x11E1D, offset: 0x32075, size: 0x8, addend: 0x0, symName: __ZNKSt3__16vectorINS_12basic_stringIcNS_11char_traitsIcEENS_9allocatorIcEEEENS4_IS6_EEE17__annotate_deleteB8ue170006Ev, symObjAddr: 0x74C0, symBinAddr: 0x10000E910, symSize: 0xB0 }
  - { offsetInCU: 0x11E42, offset: 0x3209A, size: 0x8, addend: 0x0, symName: __ZNSt3__116allocator_traitsINS_9allocatorINS_12basic_stringIcNS_11char_traitsIcEENS1_IcEEEEEEE10deallocateB8ue170006ERS7_PS6_m, symObjAddr: 0x7570, symBinAddr: 0x10000E9C0, symSize: 0x30 }
  - { offsetInCU: 0x11E84, offset: 0x320DC, size: 0x8, addend: 0x0, symName: __ZNSt3__16vectorINS_12basic_stringIcNS_11char_traitsIcEENS_9allocatorIcEEEENS4_IS6_EEE7__allocB8ue170006Ev, symObjAddr: 0x75A0, symBinAddr: 0x10000E9F0, symSize: 0x20 }
  - { offsetInCU: 0x11EA9, offset: 0x32101, size: 0x8, addend: 0x0, symName: __ZNKSt3__16vectorINS_12basic_stringIcNS_11char_traitsIcEENS_9allocatorIcEEEENS4_IS6_EEE8capacityB8ue170006Ev, symObjAddr: 0x75C0, symBinAddr: 0x10000EA10, symSize: 0x40 }
  - { offsetInCU: 0x11ECE, offset: 0x32126, size: 0x8, addend: 0x0, symName: __ZNSt3__16vectorINS_12basic_stringIcNS_11char_traitsIcEENS_9allocatorIcEEEENS4_IS6_EEE22__base_destruct_at_endB8ue170006EPS6_, symObjAddr: 0x7600, symBinAddr: 0x10000EA50, symSize: 0x80 }
  - { offsetInCU: 0x11F11, offset: 0x32169, size: 0x8, addend: 0x0, symName: __ZNSt3__116allocator_traitsINS_9allocatorINS_12basic_stringIcNS_11char_traitsIcEENS1_IcEEEEEEE7destroyB8ue170006IS6_vEEvRS7_PT_, symObjAddr: 0x7680, symBinAddr: 0x10000EAD0, symSize: 0x30 }
  - { offsetInCU: 0x11F4E, offset: 0x321A6, size: 0x8, addend: 0x0, symName: __ZNSt3__19allocatorINS_12basic_stringIcNS_11char_traitsIcEENS0_IcEEEEE7destroyB8ue170006EPS5_, symObjAddr: 0x76C0, symBinAddr: 0x10000EB10, symSize: 0x20 }
  - { offsetInCU: 0x11F81, offset: 0x321D9, size: 0x8, addend: 0x0, symName: __ZNKSt3__16vectorINS_12basic_stringIcNS_11char_traitsIcEENS_9allocatorIcEEEENS4_IS6_EEE31__annotate_contiguous_containerB8ue170006EPKvSA_SA_SA_, symObjAddr: 0x76E0, symBinAddr: 0x10000EB30, symSize: 0x20 }
  - { offsetInCU: 0x11FD2, offset: 0x3222A, size: 0x8, addend: 0x0, symName: __ZNKSt3__16vectorINS_12basic_stringIcNS_11char_traitsIcEENS_9allocatorIcEEEENS4_IS6_EEE4dataB8ue170006Ev, symObjAddr: 0x7700, symBinAddr: 0x10000EB50, symSize: 0x20 }
  - { offsetInCU: 0x11FF7, offset: 0x3224F, size: 0x8, addend: 0x0, symName: __ZNSt3__19allocatorINS_12basic_stringIcNS_11char_traitsIcEENS0_IcEEEEE10deallocateB8ue170006EPS5_m, symObjAddr: 0x7720, symBinAddr: 0x10000EB70, symSize: 0x50 }
  - { offsetInCU: 0x12038, offset: 0x32290, size: 0x8, addend: 0x0, symName: __ZNSt3__117__compressed_pairIPNS_12basic_stringIcNS_11char_traitsIcEENS_9allocatorIcEEEENS4_IS6_EEE6secondB8ue170006Ev, symObjAddr: 0x7770, symBinAddr: 0x10000EBC0, symSize: 0x20 }
  - { offsetInCU: 0x1205D, offset: 0x322B5, size: 0x8, addend: 0x0, symName: __ZNSt3__122__compressed_pair_elemINS_9allocatorINS_12basic_stringIcNS_11char_traitsIcEENS1_IcEEEEEELi1ELb1EE5__getB8ue170006Ev, symObjAddr: 0x7790, symBinAddr: 0x10000EBE0, symSize: 0x10 }
  - { offsetInCU: 0x12082, offset: 0x322DA, size: 0x8, addend: 0x0, symName: __ZNKSt3__16vectorINS_12basic_stringIcNS_11char_traitsIcEENS_9allocatorIcEEEENS4_IS6_EEE9__end_capB8ue170006Ev, symObjAddr: 0x77A0, symBinAddr: 0x10000EBF0, symSize: 0x20 }
  - { offsetInCU: 0x120A7, offset: 0x322FF, size: 0x8, addend: 0x0, symName: __ZNKSt3__117__compressed_pairIPNS_12basic_stringIcNS_11char_traitsIcEENS_9allocatorIcEEEENS4_IS6_EEE5firstB8ue170006Ev, symObjAddr: 0x77C0, symBinAddr: 0x10000EC10, symSize: 0x20 }
  - { offsetInCU: 0x120CC, offset: 0x32324, size: 0x8, addend: 0x0, symName: __ZNKSt3__122__compressed_pair_elemIPNS_12basic_stringIcNS_11char_traitsIcEENS_9allocatorIcEEEELi0ELb0EE5__getB8ue170006Ev, symObjAddr: 0x77E0, symBinAddr: 0x10000EC30, symSize: 0x10 }
  - { offsetInCU: 0x120F1, offset: 0x32349, size: 0x8, addend: 0x0, symName: __ZNSt3__16vectorINS_12basic_stringIcNS_11char_traitsIcEENS_9allocatorIcEEEENS4_IS6_EEE13__move_assignERS8_NS_17integral_constantIbLb1EEE, symObjAddr: 0x77F0, symBinAddr: 0x10000EC40, symSize: 0xA0 }
  - { offsetInCU: 0x12131, offset: 0x32389, size: 0x8, addend: 0x0, symName: __ZNSt3__16vectorINS_12basic_stringIcNS_11char_traitsIcEENS_9allocatorIcEEEENS4_IS6_EEE13__vdeallocateEv, symObjAddr: 0x7890, symBinAddr: 0x10000ECE0, symSize: 0x90 }
  - { offsetInCU: 0x12157, offset: 0x323AF, size: 0x8, addend: 0x0, symName: __ZNSt3__16vectorINS_12basic_stringIcNS_11char_traitsIcEENS_9allocatorIcEEEENS4_IS6_EEE19__move_assign_allocB8ue170006ERS8_, symObjAddr: 0x7920, symBinAddr: 0x10000ED70, symSize: 0x30 }
  - { offsetInCU: 0x1218B, offset: 0x323E3, size: 0x8, addend: 0x0, symName: __ZNSt3__16vectorINS_12basic_stringIcNS_11char_traitsIcEENS_9allocatorIcEEEENS4_IS6_EEE9__end_capB8ue170006Ev, symObjAddr: 0x7950, symBinAddr: 0x10000EDA0, symSize: 0x20 }
  - { offsetInCU: 0x121B0, offset: 0x32408, size: 0x8, addend: 0x0, symName: __ZNSt3__16vectorINS_12basic_stringIcNS_11char_traitsIcEENS_9allocatorIcEEEENS4_IS6_EEE5clearB8ue170006Ev, symObjAddr: 0x7970, symBinAddr: 0x10000EDC0, symSize: 0x40 }
  - { offsetInCU: 0x121E4, offset: 0x3243C, size: 0x8, addend: 0x0, symName: __ZNKSt3__16vectorINS_12basic_stringIcNS_11char_traitsIcEENS_9allocatorIcEEEENS4_IS6_EEE17__annotate_shrinkB8ue170006Em, symObjAddr: 0x79B0, symBinAddr: 0x10000EE00, symSize: 0xA0 }
  - { offsetInCU: 0x12218, offset: 0x32470, size: 0x8, addend: 0x0, symName: __ZNSt3__16vectorINS_12basic_stringIcNS_11char_traitsIcEENS_9allocatorIcEEEENS4_IS6_EEE19__move_assign_allocB8ue170006ERS8_NS_17integral_constantIbLb1EEE, symObjAddr: 0x7A50, symBinAddr: 0x10000EEA0, symSize: 0x30 }
  - { offsetInCU: 0x12257, offset: 0x324AF, size: 0x8, addend: 0x0, symName: __ZNSt3__117__compressed_pairIPNS_12basic_stringIcNS_11char_traitsIcEENS_9allocatorIcEEEENS4_IS6_EEE5firstB8ue170006Ev, symObjAddr: 0x7A80, symBinAddr: 0x10000EED0, symSize: 0x20 }
  - { offsetInCU: 0x1227C, offset: 0x324D4, size: 0x8, addend: 0x0, symName: __ZNSt3__122__compressed_pair_elemIPNS_12basic_stringIcNS_11char_traitsIcEENS_9allocatorIcEEEELi0ELb0EE5__getB8ue170006Ev, symObjAddr: 0x7AA0, symBinAddr: 0x10000EEF0, symSize: 0x10 }
  - { offsetInCU: 0x122A1, offset: 0x324F9, size: 0x8, addend: 0x0, symName: __ZNSt3__16vectorINS_12basic_stringIcNS_11char_traitsIcEENS_9allocatorIcEEEENS4_IS6_EEE11__make_iterB8ue170006EPS6_, symObjAddr: 0x7AB0, symBinAddr: 0x10000EF00, symSize: 0x30 }
  - { offsetInCU: 0x122D5, offset: 0x3252D, size: 0x8, addend: 0x0, symName: __ZNSt3__111__wrap_iterIPNS_12basic_stringIcNS_11char_traitsIcEENS_9allocatorIcEEEEEC1B8ue170006ES7_, symObjAddr: 0x7AE0, symBinAddr: 0x10000EF30, symSize: 0x30 }
  - { offsetInCU: 0x1230C, offset: 0x32564, size: 0x8, addend: 0x0, symName: __ZNSt3__111__wrap_iterIPNS_12basic_stringIcNS_11char_traitsIcEENS_9allocatorIcEEEEEC2B8ue170006ES7_, symObjAddr: 0x7B10, symBinAddr: 0x10000EF60, symSize: 0x20 }
  - { offsetInCU: 0x12343, offset: 0x3259B, size: 0x8, addend: 0x0, symName: __ZNSt3__16__treeINS_12__value_typeINS_12basic_stringIcNS_11char_traitsIcEENS_9allocatorIcEEEE8TestCaseEENS_19__map_value_compareIS7_S9_NS_4lessIS7_EELb1EEENS5_IS9_EEE4findIS7_EENS_15__tree_iteratorIS9_PNS_11__tree_nodeIS9_PvEElEERKT_, symObjAddr: 0x7B30, symBinAddr: 0x10000EF80, symSize: 0xE0 }
  - { offsetInCU: 0x12390, offset: 0x325E8, size: 0x8, addend: 0x0, symName: __ZNSt3__16__treeINS_12__value_typeINS_12basic_stringIcNS_11char_traitsIcEENS_9allocatorIcEEEE8TestCaseEENS_19__map_value_compareIS7_S9_NS_4lessIS7_EELb1EEENS5_IS9_EEE13__lower_boundIS7_EENS_15__tree_iteratorIS9_PNS_11__tree_nodeIS9_PvEElEERKT_SL_PNS_15__tree_end_nodeIPNS_16__tree_node_baseISJ_EEEE, symObjAddr: 0x7C10, symBinAddr: 0x10000F060, symSize: 0x90 }
  - { offsetInCU: 0x123EC, offset: 0x32644, size: 0x8, addend: 0x0, symName: __ZNKSt3__115__tree_iteratorINS_12__value_typeINS_12basic_stringIcNS_11char_traitsIcEENS_9allocatorIcEEEE8TestCaseEEPNS_11__tree_nodeIS9_PvEElEdeB8ue170006Ev, symObjAddr: 0x7CA0, symBinAddr: 0x10000F0F0, symSize: 0x20 }
  - { offsetInCU: 0x12411, offset: 0x32669, size: 0x8, addend: 0x0, symName: __ZNSt12out_of_rangeC1B8ue170006EPKc, symObjAddr: 0x7D30, symBinAddr: 0x10000F180, symSize: 0x30 }
  - { offsetInCU: 0x12448, offset: 0x326A0, size: 0x8, addend: 0x0, symName: __ZNSt12out_of_rangeC2B8ue170006EPKc, symObjAddr: 0x7D60, symBinAddr: 0x10000F1B0, symSize: 0x40 }
  - { offsetInCU: 0x124A2, offset: 0x326FA, size: 0x8, addend: 0x0, symName: '__ZZN9TestSuite9run_testsEiPPcENK3$_0clENSt3__14pairINS3_12basic_stringIcNS3_11char_traitsIcEENS3_9allocatorIcEEEE8TestCaseEE', symObjAddr: 0x7DA0, symBinAddr: 0x10000F1F0, symSize: 0x40 }
  - { offsetInCU: 0x124DB, offset: 0x32733, size: 0x8, addend: 0x0, symName: __ZNSt3__14pairINS_12basic_stringIcNS_11char_traitsIcEENS_9allocatorIcEEEE8TestCaseEC1B8ue170006IKS6_S7_LPv0EEERKNS0_IT_T0_EE, symObjAddr: 0x7DE0, symBinAddr: 0x10000F230, symSize: 0x30 }
  - { offsetInCU: 0x1252A, offset: 0x32782, size: 0x8, addend: 0x0, symName: __ZNSt3__14pairINS_12basic_stringIcNS_11char_traitsIcEENS_9allocatorIcEEEE8TestCaseED1Ev, symObjAddr: 0x7E10, symBinAddr: 0x10000F260, symSize: 0x20 }
  - { offsetInCU: 0x12555, offset: 0x327AD, size: 0x8, addend: 0x0, symName: __ZNSt3__14pairINS_12basic_stringIcNS_11char_traitsIcEENS_9allocatorIcEEEE8TestCaseEC2B8ue170006IKS6_S7_LPv0EEERKNS0_IT_T0_EE, symObjAddr: 0x7E30, symBinAddr: 0x10000F280, symSize: 0x60 }
  - { offsetInCU: 0x125AE, offset: 0x32806, size: 0x8, addend: 0x0, symName: __ZN8TestCaseC1ERKS_, symObjAddr: 0x7E90, symBinAddr: 0x10000F2E0, symSize: 0x30 }
  - { offsetInCU: 0x125E2, offset: 0x3283A, size: 0x8, addend: 0x0, symName: __ZN8TestCaseC2ERKS_, symObjAddr: 0x7EC0, symBinAddr: 0x10000F310, symSize: 0xB0 }
  - { offsetInCU: 0x12616, offset: 0x3286E, size: 0x8, addend: 0x0, symName: __ZNSt3__14pairINS_12basic_stringIcNS_11char_traitsIcEENS_9allocatorIcEEEE8TestCaseED2Ev, symObjAddr: 0x7F70, symBinAddr: 0x10000F3C0, symSize: 0x30 }
  - { offsetInCU: 0x1264B, offset: 0x328A3, size: 0x8, addend: 0x0, symName: '__ZZN9TestSuite9run_testsEiPPcENK3$_1clENSt3__14pairINS3_12basic_stringIcNS3_11char_traitsIcEENS3_9allocatorIcEEEE8TestCaseEE', symObjAddr: 0x7FA0, symBinAddr: 0x10000F3F0, symSize: 0x40 }
  - { offsetInCU: 0x12684, offset: 0x328DC, size: 0x8, addend: 0x0, symName: __ZNSt3__112basic_stringIcNS_11char_traitsIcEENS_9allocatorIcEEEC2B8ue170006ILi0EEEPKc, symObjAddr: 0x7FE0, symBinAddr: 0x10000F430, symSize: 0x50 }
  - { offsetInCU: 0x126C7, offset: 0x3291F, size: 0x8, addend: 0x0, symName: __ZNSt3__16vectorINS_12basic_stringIcNS_11char_traitsIcEENS_9allocatorIcEEEENS4_IS6_EEE22__construct_one_at_endB8ue170006IJS6_EEEvDpOT_, symObjAddr: 0x8030, symBinAddr: 0x10000F480, symSize: 0x90 }
  - { offsetInCU: 0x12715, offset: 0x3296D, size: 0x8, addend: 0x0, symName: __ZNSt3__16vectorINS_12basic_stringIcNS_11char_traitsIcEENS_9allocatorIcEEEENS4_IS6_EEE21__push_back_slow_pathIS6_EEvOT_, symObjAddr: 0x80C0, symBinAddr: 0x10000F510, symSize: 0xD0 }
  - { offsetInCU: 0x1278A, offset: 0x329E2, size: 0x8, addend: 0x0, symName: __ZNSt3__16vectorINS_12basic_stringIcNS_11char_traitsIcEENS_9allocatorIcEEEENS4_IS6_EEE21_ConstructTransactionC1B8ue170006ERS8_m, symObjAddr: 0x8190, symBinAddr: 0x10000F5E0, symSize: 0x30 }
  - { offsetInCU: 0x127D1, offset: 0x32A29, size: 0x8, addend: 0x0, symName: __ZNSt3__116allocator_traitsINS_9allocatorINS_12basic_stringIcNS_11char_traitsIcEENS1_IcEEEEEEE9constructB8ue170006IS6_JS6_EvEEvRS7_PT_DpOT0_, symObjAddr: 0x81C0, symBinAddr: 0x10000F610, symSize: 0x30 }
  - { offsetInCU: 0x12828, offset: 0x32A80, size: 0x8, addend: 0x0, symName: __ZNSt3__16vectorINS_12basic_stringIcNS_11char_traitsIcEENS_9allocatorIcEEEENS4_IS6_EEE21_ConstructTransactionD1B8ue170006Ev, symObjAddr: 0x81F0, symBinAddr: 0x10000F640, symSize: 0x20 }
  - { offsetInCU: 0x12851, offset: 0x32AA9, size: 0x8, addend: 0x0, symName: __ZNSt3__16vectorINS_12basic_stringIcNS_11char_traitsIcEENS_9allocatorIcEEEENS4_IS6_EEE21_ConstructTransactionC2B8ue170006ERS8_m, symObjAddr: 0x8210, symBinAddr: 0x10000F660, symSize: 0x40 }
  - { offsetInCU: 0x12898, offset: 0x32AF0, size: 0x8, addend: 0x0, symName: __ZNSt3__19allocatorINS_12basic_stringIcNS_11char_traitsIcEENS0_IcEEEEE9constructB8ue170006IS5_JS5_EEEvPT_DpOT0_, symObjAddr: 0x8250, symBinAddr: 0x10000F6A0, symSize: 0x30 }
  - { offsetInCU: 0x128ED, offset: 0x32B45, size: 0x8, addend: 0x0, symName: __ZNSt3__16vectorINS_12basic_stringIcNS_11char_traitsIcEENS_9allocatorIcEEEENS4_IS6_EEE21_ConstructTransactionD2B8ue170006Ev, symObjAddr: 0x8280, symBinAddr: 0x10000F6D0, symSize: 0x20 }
  - { offsetInCU: 0x12916, offset: 0x32B6E, size: 0x8, addend: 0x0, symName: __ZNKSt3__16vectorINS_12basic_stringIcNS_11char_traitsIcEENS_9allocatorIcEEEENS4_IS6_EEE11__recommendB8ue170006Em, symObjAddr: 0x82A0, symBinAddr: 0x10000F6F0, symSize: 0xA0 }
  - { offsetInCU: 0x12969, offset: 0x32BC1, size: 0x8, addend: 0x0, symName: __ZNSt3__114__split_bufferINS_12basic_stringIcNS_11char_traitsIcEENS_9allocatorIcEEEERNS4_IS6_EEEC1EmmS8_, symObjAddr: 0x8340, symBinAddr: 0x10000F790, symSize: 0x40 }
  - { offsetInCU: 0x129BE, offset: 0x32C16, size: 0x8, addend: 0x0, symName: __ZNSt3__114__split_bufferINS_12basic_stringIcNS_11char_traitsIcEENS_9allocatorIcEEEERNS4_IS6_EEED1Ev, symObjAddr: 0x84A0, symBinAddr: 0x10000F8F0, symSize: 0x20 }
  - { offsetInCU: 0x129E9, offset: 0x32C41, size: 0x8, addend: 0x0, symName: __ZNKSt3__16vectorINS_12basic_stringIcNS_11char_traitsIcEENS_9allocatorIcEEEENS4_IS6_EEE8max_sizeEv, symObjAddr: 0x84C0, symBinAddr: 0x10000F910, symSize: 0x60 }
  - { offsetInCU: 0x12A0F, offset: 0x32C67, size: 0x8, addend: 0x0, symName: __ZNKSt3__16vectorINS_12basic_stringIcNS_11char_traitsIcEENS_9allocatorIcEEEENS4_IS6_EEE20__throw_length_errorB8ue170006Ev, symObjAddr: 0x8520, symBinAddr: 0x10000F970, symSize: 0x20 }
  - { offsetInCU: 0x12A3E, offset: 0x32C96, size: 0x8, addend: 0x0, symName: __ZNSt3__116allocator_traitsINS_9allocatorINS_12basic_stringIcNS_11char_traitsIcEENS1_IcEEEEEEE8max_sizeB8ue170006IS7_vEEmRKS7_, symObjAddr: 0x8570, symBinAddr: 0x10000F990, symSize: 0x20 }
  - { offsetInCU: 0x12A6C, offset: 0x32CC4, size: 0x8, addend: 0x0, symName: __ZNKSt3__16vectorINS_12basic_stringIcNS_11char_traitsIcEENS_9allocatorIcEEEENS4_IS6_EEE7__allocB8ue170006Ev, symObjAddr: 0x8590, symBinAddr: 0x10000F9B0, symSize: 0x20 }
  - { offsetInCU: 0x12A91, offset: 0x32CE9, size: 0x8, addend: 0x0, symName: __ZNKSt3__19allocatorINS_12basic_stringIcNS_11char_traitsIcEENS0_IcEEEEE8max_sizeB8ue170006Ev, symObjAddr: 0x85C0, symBinAddr: 0x10000F9D0, symSize: 0x20 }
  - { offsetInCU: 0x12AB6, offset: 0x32D0E, size: 0x8, addend: 0x0, symName: __ZNKSt3__117__compressed_pairIPNS_12basic_stringIcNS_11char_traitsIcEENS_9allocatorIcEEEENS4_IS6_EEE6secondB8ue170006Ev, symObjAddr: 0x85E0, symBinAddr: 0x10000F9F0, symSize: 0x20 }
  - { offsetInCU: 0x12ADB, offset: 0x32D33, size: 0x8, addend: 0x0, symName: __ZNKSt3__122__compressed_pair_elemINS_9allocatorINS_12basic_stringIcNS_11char_traitsIcEENS1_IcEEEEEELi1ELb1EE5__getB8ue170006Ev, symObjAddr: 0x8600, symBinAddr: 0x10000FA10, symSize: 0x10 }
  - { offsetInCU: 0x12B00, offset: 0x32D58, size: 0x8, addend: 0x0, symName: __ZNSt3__114__split_bufferINS_12basic_stringIcNS_11char_traitsIcEENS_9allocatorIcEEEERNS4_IS6_EEEC2EmmS8_, symObjAddr: 0x8750, symBinAddr: 0x10000FA20, symSize: 0xC0 }
  - { offsetInCU: 0x12B72, offset: 0x32DCA, size: 0x8, addend: 0x0, symName: __ZNSt3__117__compressed_pairIPNS_12basic_stringIcNS_11char_traitsIcEENS_9allocatorIcEEEERNS4_IS6_EEEC1B8ue170006IDnS9_EEOT_OT0_, symObjAddr: 0x8810, symBinAddr: 0x10000FAE0, symSize: 0x30 }
  - { offsetInCU: 0x12BC9, offset: 0x32E21, size: 0x8, addend: 0x0, symName: __ZNSt3__114__split_bufferINS_12basic_stringIcNS_11char_traitsIcEENS_9allocatorIcEEEERNS4_IS6_EEE7__allocB8ue170006Ev, symObjAddr: 0x8880, symBinAddr: 0x10000FB50, symSize: 0x20 }
  - { offsetInCU: 0x12BEE, offset: 0x32E46, size: 0x8, addend: 0x0, symName: __ZNSt3__114__split_bufferINS_12basic_stringIcNS_11char_traitsIcEENS_9allocatorIcEEEERNS4_IS6_EEE9__end_capB8ue170006Ev, symObjAddr: 0x88A0, symBinAddr: 0x10000FB70, symSize: 0x20 }
  - { offsetInCU: 0x12C13, offset: 0x32E6B, size: 0x8, addend: 0x0, symName: __ZNSt3__117__compressed_pairIPNS_12basic_stringIcNS_11char_traitsIcEENS_9allocatorIcEEEERNS4_IS6_EEEC2B8ue170006IDnS9_EEOT_OT0_, symObjAddr: 0x88C0, symBinAddr: 0x10000FB90, symSize: 0x40 }
  - { offsetInCU: 0x12C6A, offset: 0x32EC2, size: 0x8, addend: 0x0, symName: __ZNSt3__122__compressed_pair_elemIRNS_9allocatorINS_12basic_stringIcNS_11char_traitsIcEENS1_IcEEEEEELi1ELb0EEC2B8ue170006IS8_vEEOT_, symObjAddr: 0x8900, symBinAddr: 0x10000FBD0, symSize: 0x20 }
  - { offsetInCU: 0x12CAB, offset: 0x32F03, size: 0x8, addend: 0x0, symName: __ZNSt3__19allocatorINS_12basic_stringIcNS_11char_traitsIcEENS0_IcEEEEE8allocateB8ue170006Em, symObjAddr: 0x8920, symBinAddr: 0x10000FBF0, symSize: 0x50 }
  - { offsetInCU: 0x12CDE, offset: 0x32F36, size: 0x8, addend: 0x0, symName: __ZNSt3__117__compressed_pairIPNS_12basic_stringIcNS_11char_traitsIcEENS_9allocatorIcEEEERNS4_IS6_EEE6secondB8ue170006Ev, symObjAddr: 0x8970, symBinAddr: 0x10000FC40, symSize: 0x20 }
  - { offsetInCU: 0x12D03, offset: 0x32F5B, size: 0x8, addend: 0x0, symName: __ZNSt3__122__compressed_pair_elemIRNS_9allocatorINS_12basic_stringIcNS_11char_traitsIcEENS1_IcEEEEEELi1ELb0EE5__getB8ue170006Ev, symObjAddr: 0x8990, symBinAddr: 0x10000FC60, symSize: 0x20 }
  - { offsetInCU: 0x12D28, offset: 0x32F80, size: 0x8, addend: 0x0, symName: __ZNSt3__117__compressed_pairIPNS_12basic_stringIcNS_11char_traitsIcEENS_9allocatorIcEEEERNS4_IS6_EEE5firstB8ue170006Ev, symObjAddr: 0x89B0, symBinAddr: 0x10000FC80, symSize: 0x20 }
  - { offsetInCU: 0x12D4D, offset: 0x32FA5, size: 0x8, addend: 0x0, symName: __ZNSt3__116reverse_iteratorIPNS_12basic_stringIcNS_11char_traitsIcEENS_9allocatorIcEEEEEC1B8ue170006ES7_, symObjAddr: 0x8B50, symBinAddr: 0x10000FE20, symSize: 0x30 }
  - { offsetInCU: 0x12D84, offset: 0x32FDC, size: 0x8, addend: 0x0, symName: __ZNKSt3__116reverse_iteratorIPNS_12basic_stringIcNS_11char_traitsIcEENS_9allocatorIcEEEEE4baseB8ue170006Ev, symObjAddr: 0x8B80, symBinAddr: 0x10000FE50, symSize: 0x20 }
  - { offsetInCU: 0x12DA9, offset: 0x33001, size: 0x8, addend: 0x0, symName: __ZNKSt3__16vectorINS_12basic_stringIcNS_11char_traitsIcEENS_9allocatorIcEEEENS4_IS6_EEE14__annotate_newB8ue170006Em, symObjAddr: 0x8BE0, symBinAddr: 0x10000FEB0, symSize: 0xA0 }
  - { offsetInCU: 0x12DDD, offset: 0x33035, size: 0x8, addend: 0x0, symName: __ZNSt3__129_AllocatorDestroyRangeReverseINS_9allocatorINS_12basic_stringIcNS_11char_traitsIcEENS1_IcEEEEEENS_16reverse_iteratorIPS6_EEEC1B8ue170006ERS7_RSA_SD_, symObjAddr: 0x8CE0, symBinAddr: 0x10000FFB0, symSize: 0x40 }
  - { offsetInCU: 0x12E33, offset: 0x3308B, size: 0x8, addend: 0x0, symName: __ZNKSt3__116reverse_iteratorIPNS_12basic_stringIcNS_11char_traitsIcEENS_9allocatorIcEEEEEdeB8ue170006Ev, symObjAddr: 0x8D80, symBinAddr: 0x100010050, symSize: 0x30 }
  - { offsetInCU: 0x12E66, offset: 0x330BE, size: 0x8, addend: 0x0, symName: __ZNSt3__116reverse_iteratorIPNS_12basic_stringIcNS_11char_traitsIcEENS_9allocatorIcEEEEEppB8ue170006Ev, symObjAddr: 0x8DB0, symBinAddr: 0x100010080, symSize: 0x20 }
  - { offsetInCU: 0x12E8B, offset: 0x330E3, size: 0x8, addend: 0x0, symName: __ZNSt3__128__exception_guard_exceptionsINS_29_AllocatorDestroyRangeReverseINS_9allocatorINS_12basic_stringIcNS_11char_traitsIcEENS2_IcEEEEEENS_16reverse_iteratorIPS7_EEEEE10__completeB8ue170006Ev, symObjAddr: 0x8DD0, symBinAddr: 0x1000100A0, symSize: 0x20 }
  - { offsetInCU: 0x12EB0, offset: 0x33108, size: 0x8, addend: 0x0, symName: __ZNSt3__128__exception_guard_exceptionsINS_29_AllocatorDestroyRangeReverseINS_9allocatorINS_12basic_stringIcNS_11char_traitsIcEENS2_IcEEEEEENS_16reverse_iteratorIPS7_EEEEED1B8ue170006Ev, symObjAddr: 0x8DF0, symBinAddr: 0x1000100C0, symSize: 0x20 }
  - { offsetInCU: 0x12ED9, offset: 0x33131, size: 0x8, addend: 0x0, symName: __ZNSt3__128__exception_guard_exceptionsINS_29_AllocatorDestroyRangeReverseINS_9allocatorINS_12basic_stringIcNS_11char_traitsIcEENS2_IcEEEEEENS_16reverse_iteratorIPS7_EEEEEC1B8ue170006ESC_, symObjAddr: 0x8E10, symBinAddr: 0x1000100E0, symSize: 0x40 }
  - { offsetInCU: 0x12F10, offset: 0x33168, size: 0x8, addend: 0x0, symName: __ZNSt3__128__exception_guard_exceptionsINS_29_AllocatorDestroyRangeReverseINS_9allocatorINS_12basic_stringIcNS_11char_traitsIcEENS2_IcEEEEEENS_16reverse_iteratorIPS7_EEEEEC2B8ue170006ESC_, symObjAddr: 0x8E50, symBinAddr: 0x100010120, symSize: 0x30 }
  - { offsetInCU: 0x12F47, offset: 0x3319F, size: 0x8, addend: 0x0, symName: __ZNSt3__129_AllocatorDestroyRangeReverseINS_9allocatorINS_12basic_stringIcNS_11char_traitsIcEENS1_IcEEEEEENS_16reverse_iteratorIPS6_EEEC2B8ue170006ERS7_RSA_SD_, symObjAddr: 0x8E80, symBinAddr: 0x100010150, symSize: 0x40 }
  - { offsetInCU: 0x12FA2, offset: 0x331FA, size: 0x8, addend: 0x0, symName: __ZNSt3__119__to_address_helperINS_16reverse_iteratorIPNS_12basic_stringIcNS_11char_traitsIcEENS_9allocatorIcEEEEEEvE6__callB8ue170006ERKS9_, symObjAddr: 0x8EC0, symBinAddr: 0x100010190, symSize: 0x40 }
  - { offsetInCU: 0x12FC5, offset: 0x3321D, size: 0x8, addend: 0x0, symName: __ZNKSt3__116reverse_iteratorIPNS_12basic_stringIcNS_11char_traitsIcEENS_9allocatorIcEEEEEptB8ue170006Ev, symObjAddr: 0x8F00, symBinAddr: 0x1000101D0, symSize: 0x20 }
  - { offsetInCU: 0x12FEA, offset: 0x33242, size: 0x8, addend: 0x0, symName: __ZNSt3__128__exception_guard_exceptionsINS_29_AllocatorDestroyRangeReverseINS_9allocatorINS_12basic_stringIcNS_11char_traitsIcEENS2_IcEEEEEENS_16reverse_iteratorIPS7_EEEEED2B8ue170006Ev, symObjAddr: 0x8F20, symBinAddr: 0x1000101F0, symSize: 0x40 }
  - { offsetInCU: 0x13013, offset: 0x3326B, size: 0x8, addend: 0x0, symName: __ZNKSt3__129_AllocatorDestroyRangeReverseINS_9allocatorINS_12basic_stringIcNS_11char_traitsIcEENS1_IcEEEEEENS_16reverse_iteratorIPS6_EEEclB8ue170006Ev, symObjAddr: 0x8F60, symBinAddr: 0x100010230, symSize: 0xF0 }
  - { offsetInCU: 0x13039, offset: 0x33291, size: 0x8, addend: 0x0, symName: __ZNSt3__116reverse_iteratorINS0_IPNS_12basic_stringIcNS_11char_traitsIcEENS_9allocatorIcEEEEEEEC1B8ue170006ES8_, symObjAddr: 0x90C0, symBinAddr: 0x100010390, symSize: 0x30 }
  - { offsetInCU: 0x13070, offset: 0x332C8, size: 0x8, addend: 0x0, symName: __ZNSt3__116reverse_iteratorINS0_IPNS_12basic_stringIcNS_11char_traitsIcEENS_9allocatorIcEEEEEEEppB8ue170006Ev, symObjAddr: 0x9160, symBinAddr: 0x100010430, symSize: 0x30 }
  - { offsetInCU: 0x13095, offset: 0x332ED, size: 0x8, addend: 0x0, symName: __ZNKSt3__116reverse_iteratorINS0_IPNS_12basic_stringIcNS_11char_traitsIcEENS_9allocatorIcEEEEEEE4baseB8ue170006Ev, symObjAddr: 0x9190, symBinAddr: 0x100010460, symSize: 0x20 }
  - { offsetInCU: 0x130BF, offset: 0x33317, size: 0x8, addend: 0x0, symName: __ZNSt3__119__to_address_helperINS_16reverse_iteratorINS1_IPNS_12basic_stringIcNS_11char_traitsIcEENS_9allocatorIcEEEEEEEEvE6__callB8ue170006ERKSA_, symObjAddr: 0x91B0, symBinAddr: 0x100010480, symSize: 0x40 }
  - { offsetInCU: 0x130E2, offset: 0x3333A, size: 0x8, addend: 0x0, symName: __ZNKSt3__116reverse_iteratorINS0_IPNS_12basic_stringIcNS_11char_traitsIcEENS_9allocatorIcEEEEEEEptB8ue170006Ev, symObjAddr: 0x91F0, symBinAddr: 0x1000104C0, symSize: 0x20 }
  - { offsetInCU: 0x13107, offset: 0x3335F, size: 0x8, addend: 0x0, symName: __ZNKSt3__116reverse_iteratorINS0_IPNS_12basic_stringIcNS_11char_traitsIcEENS_9allocatorIcEEEEEEEdeB8ue170006Ev, symObjAddr: 0x9210, symBinAddr: 0x1000104E0, symSize: 0x40 }
  - { offsetInCU: 0x1313A, offset: 0x33392, size: 0x8, addend: 0x0, symName: __ZNSt3__116reverse_iteratorIPNS_12basic_stringIcNS_11char_traitsIcEENS_9allocatorIcEEEEEmmB8ue170006Ev, symObjAddr: 0x9250, symBinAddr: 0x100010520, symSize: 0x20 }
  - { offsetInCU: 0x1315F, offset: 0x333B7, size: 0x8, addend: 0x0, symName: __ZNSt3__116reverse_iteratorINS0_IPNS_12basic_stringIcNS_11char_traitsIcEENS_9allocatorIcEEEEEEEC2B8ue170006ES8_, symObjAddr: 0x9270, symBinAddr: 0x100010540, symSize: 0x40 }
  - { offsetInCU: 0x13196, offset: 0x333EE, size: 0x8, addend: 0x0, symName: __ZNSt3__116reverse_iteratorIPNS_12basic_stringIcNS_11char_traitsIcEENS_9allocatorIcEEEEEC2B8ue170006ES7_, symObjAddr: 0x92B0, symBinAddr: 0x100010580, symSize: 0x30 }
  - { offsetInCU: 0x131CD, offset: 0x33425, size: 0x8, addend: 0x0, symName: __ZNSt3__114__split_bufferINS_12basic_stringIcNS_11char_traitsIcEENS_9allocatorIcEEEERNS4_IS6_EEED2Ev, symObjAddr: 0x92E0, symBinAddr: 0x1000105B0, symSize: 0x70 }
  - { offsetInCU: 0x131F8, offset: 0x33450, size: 0x8, addend: 0x0, symName: __ZNSt3__114__split_bufferINS_12basic_stringIcNS_11char_traitsIcEENS_9allocatorIcEEEERNS4_IS6_EEE5clearB8ue170006Ev, symObjAddr: 0x9350, symBinAddr: 0x100010620, symSize: 0x20 }
  - { offsetInCU: 0x1321D, offset: 0x33475, size: 0x8, addend: 0x0, symName: __ZNKSt3__114__split_bufferINS_12basic_stringIcNS_11char_traitsIcEENS_9allocatorIcEEEERNS4_IS6_EEE8capacityB8ue170006Ev, symObjAddr: 0x9370, symBinAddr: 0x100010640, symSize: 0x40 }
  - { offsetInCU: 0x13242, offset: 0x3349A, size: 0x8, addend: 0x0, symName: __ZNSt3__114__split_bufferINS_12basic_stringIcNS_11char_traitsIcEENS_9allocatorIcEEEERNS4_IS6_EEE17__destruct_at_endB8ue170006EPS6_, symObjAddr: 0x93B0, symBinAddr: 0x100010680, symSize: 0x30 }
  - { offsetInCU: 0x13275, offset: 0x334CD, size: 0x8, addend: 0x0, symName: __ZNSt3__114__split_bufferINS_12basic_stringIcNS_11char_traitsIcEENS_9allocatorIcEEEERNS4_IS6_EEE17__destruct_at_endB8ue170006EPS6_NS_17integral_constantIbLb0EEE, symObjAddr: 0x93E0, symBinAddr: 0x1000106B0, symSize: 0x80 }
  - { offsetInCU: 0x132B3, offset: 0x3350B, size: 0x8, addend: 0x0, symName: __ZNKSt3__114__split_bufferINS_12basic_stringIcNS_11char_traitsIcEENS_9allocatorIcEEEERNS4_IS6_EEE9__end_capB8ue170006Ev, symObjAddr: 0x9460, symBinAddr: 0x100010730, symSize: 0x20 }
  - { offsetInCU: 0x132D8, offset: 0x33530, size: 0x8, addend: 0x0, symName: __ZNKSt3__117__compressed_pairIPNS_12basic_stringIcNS_11char_traitsIcEENS_9allocatorIcEEEERNS4_IS6_EEE5firstB8ue170006Ev, symObjAddr: 0x9480, symBinAddr: 0x100010750, symSize: 0x20 }
  - { offsetInCU: 0x132FD, offset: 0x33555, size: 0x8, addend: 0x0, symName: __ZNSt3__120back_insert_iteratorINS_6vectorINS_12basic_stringIcNS_11char_traitsIcEENS_9allocatorIcEEEENS5_IS7_EEEEEC1B8ue170006ERS9_, symObjAddr: 0x94A0, symBinAddr: 0x100010770, symSize: 0x30 }
  - { offsetInCU: 0x13334, offset: 0x3358C, size: 0x8, addend: 0x0, symName: __ZNSt3__120back_insert_iteratorINS_6vectorINS_12basic_stringIcNS_11char_traitsIcEENS_9allocatorIcEEEENS5_IS7_EEEEEC2B8ue170006ERS9_, symObjAddr: 0x94D0, symBinAddr: 0x1000107A0, symSize: 0x20 }
  - { offsetInCU: 0x13375, offset: 0x335CD, size: 0x8, addend: 0x0, symName: '__ZZN9TestSuite21get_test_names_to_runEiPPcENK3$_2clERKNSt3__14pairINS3_12basic_stringIcNS3_11char_traitsIcEENS3_9allocatorIcEEEE8TestCaseEE', symObjAddr: 0x94F0, symBinAddr: 0x1000107C0, symSize: 0x30 }
  - { offsetInCU: 0x133AD, offset: 0x33605, size: 0x8, addend: 0x0, symName: __ZNSt3__120back_insert_iteratorINS_6vectorINS_12basic_stringIcNS_11char_traitsIcEENS_9allocatorIcEEEENS5_IS7_EEEEEdeB8ue170006Ev, symObjAddr: 0x9520, symBinAddr: 0x1000107F0, symSize: 0x10 }
  - { offsetInCU: 0x133D2, offset: 0x3362A, size: 0x8, addend: 0x0, symName: __ZNSt3__120back_insert_iteratorINS_6vectorINS_12basic_stringIcNS_11char_traitsIcEENS_9allocatorIcEEEENS5_IS7_EEEEEaSB8ue170006EOS7_, symObjAddr: 0x9530, symBinAddr: 0x100010800, symSize: 0x30 }
  - { offsetInCU: 0x13405, offset: 0x3365D, size: 0x8, addend: 0x0, symName: __ZNSt3__120back_insert_iteratorINS_6vectorINS_12basic_stringIcNS_11char_traitsIcEENS_9allocatorIcEEEENS5_IS7_EEEEEppB8ue170006Ev, symObjAddr: 0x9560, symBinAddr: 0x100010830, symSize: 0xE }
...
